ccollections
defaultdict
p0
(c__builtin__
set
p1
tp2
Rp3
S'positive'
p4
g1
((lp5
S''
p6
aS'limited'
p7
aS'subtract'
p8
aS'suicidal'
p9
aS'cussed'
p10
aS'interference'
p11
aS'dissolution'
p12
aS'refutes'
p13
aS'threatening'
p14
aS'foul'
p15
aS'obstruction'
p16
aS'protest'
p17
aS'slogs'
p18
aS'lurking'
p19
aS'ineptly'
p20
aS'controversial'
p21
aS'hating'
p22
aS'hate'
p23
aS'inexpert'
p24
aS'aggression'
p25
aS'poorly'
p26
aS'stinks'
p27
aS'offenses'
p28
aS'unfeeling'
p29
aS'haters'
p30
aS'asinininity'
p31
aS'sermonize'
p32
aS'rupture'
p33
aS'excoriate'
p34
aS'inhospitality'
p35
aS'venom'
p36
aS'plotters'
p37
aS'superficially'
p38
aS'unbearablely'
p39
aS'hallucinate'
p40
aS'fatcat'
p41
aS'daze'
p42
aS'berate'
p43
aS'sputter'
p44
aS'immature'
p45
aS'bulkier'
p46
aS'forbidden'
p47
aS'divergent'
p48
aS'sinking'
p49
aS'slow-moving'
p50
aS'lure'
p51
aS'blistering'
p52
aS'risk'
p53
aS'appal'
p54
aS'destitution'
p55
aS'despondency'
p56
aS'lurk'
p57
aS'misunderstanding'
p58
aS'distort'
p59
aS'splitting'
p60
aS'traumatized'
p61
aS'manic'
p62
aS'smack'
p63
aS'befoul'
p64
aS'unwilling'
p65
aS'weariness'
p66
aS'despondence'
p67
aS'grumpier'
p68
aS'franticly'
p69
aS'irksomely'
p70
aS'anemic'
p71
aS'deplorably'
p72
aS'disturb'
p73
aS'bewildered'
p74
aS'exaggerate'
p75
aS'pinch'
p76
aS'harried'
p77
aS'tarnishing'
p78
aS'relentlessly'
p79
aS'timidness'
p80
aS'unconvincingly'
p81
aS'brutish'
p82
aS'irrationally'
p83
aS'rife'
p84
aS'inaction'
p85
aS'deplorable'
p86
aS'forged'
p87
aS'overdo'
p88
aS'monotonous'
p89
aS'insular'
p90
aS'blasphemy'
p91
aS'mirage'
p92
aS'resentful'
p93
aS'warlike'
p94
aS'depraved'
p95
aS'rusty'
p96
aS'louder'
p97
aS'blaspheme'
p98
aS'rusts'
p99
aS'over-balanced'
p100
aS'emptiness'
p101
aS'loathing'
p102
aS'incompatible'
p103
aS'haughtily'
p104
aS'decadence'
p105
aS'imminence'
p106
aS'strangest'
p107
aS'gawky'
p108
aS'errors'
p109
aS'sidetrack'
p110
aS'inelegance'
p111
aS'ignominiously'
p112
aS'ruthless'
p113
aS'unwieldy'
p114
aS'hatefully'
p115
aS'hazy'
p116
aS'decry'
p117
aS'insinuate'
p118
aS'mischievous'
p119
aS'brashly'
p120
aS'blur'
p121
aS'ugliest'
p122
aS'struggled'
p123
aS'reluctant'
p124
aS'stooges'
p125
aS'harbors'
p126
aS'miserably'
p127
aS'insinuation'
p128
aS'prate'
p129
aS'repugnance'
p130
aS'ultimatums'
p131
aS'deadbeat'
p132
aS'weirdly'
p133
aS'unseemly'
p134
aS'thrash'
p135
aS'smuttiest'
p136
aS'greedy'
p137
aS'subjugate'
p138
aS'fissures'
p139
aS'shortness'
p140
aS'shriek'
p141
aS'mordant'
p142
aS'bullyingly'
p143
aS'doldrums'
p144
aS'revengefully'
p145
aS'anarchism'
p146
aS'rubbish'
p147
aS'over-priced'
p148
aS'inefficiently'
p149
aS'hideously'
p150
aS'slow'
p151
aS'squeaky'
p152
aS'ridicule'
p153
aS'unfriendly'
p154
aS'foolishness'
p155
aS'controversy'
p156
aS'harass'
p157
aS'unkindly'
p158
aS'smoke'
p159
aS'insensitively'
p160
aS'lonesome'
p161
aS'heartbreaker'
p162
aS'anarchist'
p163
aS'spotty'
p164
aS'menial'
p165
aS'frigging'
p166
aS'criticism'
p167
aS'envious'
p168
aS'poorest'
p169
aS'plea'
p170
aS'discontinuous'
p171
aS'scold'
p172
aS'loveless'
p173
aS'dehumanize'
p174
aS'angrily'
p175
aS'mawkishness'
p176
aS'inequitably'
p177
aS'gaffe'
p178
aS'cheats'
p179
aS'inequality'
p180
aS'unsuccessfully'
p181
aS'nightmarish'
p182
aS'scarier'
p183
aS'devastation'
p184
aS'undesirable'
p185
aS'cheating'
p186
aS'overheat'
p187
aS'unfunded'
p188
aS'insecurity'
p189
aS'detesting'
p190
aS'exhort'
p191
aS'negative'
p192
aS'cannibal'
p193
aS'insult'
p194
aS'leaks'
p195
aS'lorn'
p196
aS'unfortunately'
p197
aS'incautious'
p198
aS'antagonism'
p199
aS'leaky'
p200
aS'agonizingly'
p201
aS'perilously'
p202
aS'rankle'
p203
aS'plagiarize'
p204
aS'blather'
p205
aS'barbarous'
p206
aS'peevish'
p207
aS'wary'
p208
aS'detracts'
p209
aS'obtrusive'
p210
aS'naive'
p211
aS'snarky'
p212
aS'phony'
p213
aS'warp'
p214
aS'hurt'
p215
aS'grief'
p216
aS'disruption'
p217
aS'sobering'
p218
aS'frenzy'
p219
aS'qualm'
p220
aS'diatribes'
p221
aS'unraveled'
p222
aS'adamant'
p223
aS'exhorbitant'
p224
aS'overrun'
p225
aS'hostile'
p226
aS'disappointing'
p227
aS'funnily'
p228
aS'err'
p229
aS'taunts'
p230
aS'aggrivation'
p231
aS'somber'
p232
aS'refusing'
p233
aS'worn'
p234
aS'regrets'
p235
aS'deficiencies'
p236
aS'criticizing'
p237
aS'smolder'
p238
aS'quarrel'
p239
aS'defile'
p240
aS'thankless'
p241
aS'galling'
p242
aS'pollute'
p243
aS'wane'
p244
aS'deadweight'
p245
aS'punk'
p246
aS'shunned'
p247
aS'unreadable'
p248
aS'heartless'
p249
aS'vehemently'
p250
aS'diappointed'
p251
aS'malign'
p252
aS'fanciful'
p253
aS'dishearteningly'
p254
aS'degenerate'
p255
aS'untruthful'
p256
aS'flairs'
p257
aS'reprove'
p258
aS'loathe'
p259
aS'collude'
p260
aS'disrespectfulness'
p261
aS'farce'
p262
aS'illicit'
p263
aS'complaining'
p264
aS'agony'
p265
aS'bunk'
p266
aS'vomiting'
p267
aS'vagrant'
p268
aS'damage'
p269
aS'debauchery'
p270
aS'indiscriminately'
p271
aS'faults'
p272
aS'stupidity'
p273
aS'morbid'
p274
aS'accusations'
p275
aS'vociferous'
p276
aS'moron'
p277
aS'disappoint'
p278
aS'faulty'
p279
aS'fudge'
p280
aS'shirker'
p281
aS'fanaticism'
p282
aS'badly'
p283
aS'worriedly'
p284
aS'fever'
p285
aS'brutalizing'
p286
aS'bothersome'
p287
aS'mispronounce'
p288
aS'funny'
p289
aS'mess'
p290
aS'pokey'
p291
aS'insecure'
p292
aS'lag'
p293
aS'indignity'
p294
aS'growl'
p295
aS'despondent'
p296
aS'oppressively'
p297
aS'overdone'
p298
aS'uproot'
p299
aS'glib'
p300
aS'extortion'
p301
aS'ambivalent'
p302
aS'complacent'
p303
aS'foolhardy'
p304
aS'oddly'
p305
aS'austere'
p306
aS'simplistic'
p307
aS'alienate'
p308
aS'hasty'
p309
aS'longingly'
p310
aS'revolt'
p311
aS'fictional'
p312
aS'neglect'
p313
aS'backwoods'
p314
aS'disobedient'
p315
aS'haste'
p316
aS'remorseful'
p317
aS'uninsured'
p318
aS'worst'
p319
aS'atrocity'
p320
aS'greed'
p321
aS'unsteady'
p322
aS'restriction'
p323
aS'infested'
p324
aS'deform'
p325
aS'fiendish'
p326
aS'top-heavy'
p327
aS'impossiblity'
p328
aS'intimidatingly'
p329
aS'sickly'
p330
aS'whips'
p331
aS'sulk'
p332
aS'despondently'
p333
aS'unobserved'
p334
aS'strangle'
p335
aS'partisans'
p336
aS'unrest'
p337
aS'wickedness'
p338
aS'undid'
p339
aS'wilt'
p340
aS'overact'
p341
aS'wickedly'
p342
aS'destroyer'
p343
aS'hypocrisy'
p344
aS'unforeseen'
p345
aS'polluters'
p346
aS'repudiate'
p347
aS'haphazard'
p348
aS'interfere'
p349
aS'unilateralism'
p350
aS'fib'
p351
aS'awfulness'
p352
aS'drawback'
p353
aS'insubstantial'
p354
aS'stifling'
p355
aS'precipitate'
p356
aS'sob'
p357
aS'skeptic'
p358
aS'smouldering'
p359
aS'puzzlement'
p360
aS'split'
p361
aS'undercut'
p362
aS'backaching'
p363
aS'grievous'
p364
aS'bristle'
p365
aS'litigious'
p366
aS'weakness'
p367
aS'unemployed'
p368
aS'spewing'
p369
aS'intimidation'
p370
aS'stuttering'
p371
aS'bane'
p372
aS'renunciation'
p373
aS'aspersions'
p374
aS'ax'
p375
aS'shameful'
p376
aS'aborted'
p377
aS'indulge'
p378
aS'interrupt'
p379
aS'disreputable'
p380
aS'rhapsodize'
p381
aS'dissappointing'
p382
aS'shirk'
p383
aS'gloom'
p384
aS'rhetoric'
p385
aS'rocky'
p386
aS'cronyism'
p387
aS'shadowy'
p388
aS'mistrust'
p389
aS'imperiously'
p390
aS'dumps'
p391
aS'superficiality'
p392
aS'frantically'
p393
aS'capricious'
p394
aS'misbehave'
p395
aS'averse'
p396
aS'addicted'
p397
aS'unusable'
p398
aS'dings'
p399
aS'loneliness'
p400
aS'unwelcome'
p401
aS'interruption'
p402
aS'wariness'
p403
aS'overbearingly'
p404
aS'dumping'
p405
aS'mangled'
p406
aS'unlawfully'
p407
aS'combust'
p408
aS'soapy'
p409
aS'caustic'
p410
aS'dispiriting'
p411
aS'mangles'
p412
aS'truant'
p413
aS'coupists'
p414
aS'contend'
p415
aS'depress'
p416
aS'misfortune'
p417
aS'nebulous'
p418
aS'disloyalty'
p419
aS'fraught'
p420
aS'fevers'
p421
aS'sluts'
p422
aS'restricted'
p423
aS'oppressors'
p424
aS'indiscretion'
p425
aS'ranted'
p426
aS'revolting'
p427
aS'oddest'
p428
aS'remorse'
p429
aS'zap'
p430
aS'smugly'
p431
aS'sluggish'
p432
aS'instigate'
p433
aS'outburst'
p434
aS'impetuous'
p435
aS'bitingly'
p436
aS'disputed'
p437
aS'rail'
p438
aS'lawless'
p439
aS'fugitive'
p440
aS'struggle'
p441
aS'violation'
p442
aS'stereotypical'
p443
aS'sadly'
p444
aS'entrap'
p445
aS'obstructing'
p446
aS'disregardful'
p447
aS'droop'
p448
aS'zaps'
p449
aS'insubstantially'
p450
aS'saggy'
p451
aS'senselessly'
p452
aS'unfulfilled'
p453
aS'maniac'
p454
aS'rumple'
p455
aS'unyielding'
p456
aS'dirtbags'
p457
aS'severity'
p458
aS'lousy'
p459
aS'disturbed'
p460
aS'oppose'
p461
aS'hopeless'
p462
aS'heckle'
p463
aS'burdensomely'
p464
aS'loud'
p465
aS'clouding'
p466
aS'relentlessness'
p467
aS'enraged'
p468
aS'downheartedly'
p469
aS'daunting'
p470
aS'officious'
p471
aS'haggle'
p472
aS'miscalculation'
p473
aS'bombard'
p474
aS'; If you use this list, please cite one of the following two papers:'
p475
aS'picketed'
p476
aS'deplete'
p477
aS'downside'
p478
aS'clamorous'
p479
aS'drones'
p480
aS'miserable'
p481
aS'screw-up'
p482
aS'tangle'
p483
aS'traitorous'
p484
aS'slanderously'
p485
aS'nastiness'
p486
aS'declaim'
p487
aS'cheerless'
p488
aS'discompose'
p489
aS'debase'
p490
aS'rejects'
p491
aS'sarcasm'
p492
aS'traumatize'
p493
aS'gauche'
p494
aS'indeterminate'
p495
aS'twisted'
p496
aS'vibrate'
p497
aS'fiction'
p498
aS'reprehension'
p499
aS'immodest'
p500
aS'fumble'
p501
aS'snags'
p502
aS'brainwash'
p503
aS'incognizant'
p504
aS'bitter'
p505
aS'militancy'
p506
aS'damaging'
p507
aS'lovelorn'
p508
aS'troubled'
p509
aS'illiterate'
p510
aS'horrendously'
p511
aS'collapse'
p512
aS'fanatical'
p513
aS'worsen'
p514
aS'leaking'
p515
aS'conspicuously'
p516
aS'rejected'
p517
aS'flimflam'
p518
aS'inarticulate'
p519
aS'motionless'
p520
aS'unreachable'
p521
aS'wasted'
p522
aS'preposterous'
p523
aS'peculiar'
p524
aS'rebuff'
p525
aS'startling'
p526
aS'anxiety'
p527
aS'affront'
p528
aS'rampage'
p529
aS'coward'
p530
aS'thumb-down'
p531
aS'bitterness'
p532
aS'martyrdom'
p533
aS'idle'
p534
aS'guilt'
p535
aS'misinformed'
p536
aS'tingling'
p537
aS'spoiled'
p538
aS'divisiveness'
p539
aS'devious'
p540
aS'misunderstood'
p541
aS'incapably'
p542
aS'solemn'
p543
aS'pervasive'
p544
aS'far-fetched'
p545
aS'fathomless'
p546
aS'rattle'
p547
aS'pessimism'
p548
aS'loathsome'
p549
aS'antagonistic'
p550
aS'screwy'
p551
aS'wripping'
p552
aS'lull'
p553
aS'stalls'
p554
aS'tenuous'
p555
aS'cannibalize'
p556
aS'concens'
p557
aS'latency'
p558
aS'horde'
p559
aS'relapse'
p560
aS'plunderer'
p561
aS'apprehensively'
p562
aS'agonies'
p563
aS'gripe'
p564
aS'isolated'
p565
aS'impotent'
p566
aS'water-down'
p567
aS'defiantly'
p568
aS'hum'
p569
aS'snob'
p570
aS'demoralizing'
p571
aS'uncivilized'
p572
aS'worsening'
p573
aS'finagle'
p574
aS'clunky'
p575
aS'imprudent'
p576
aS'disdainfully'
p577
aS'pander'
p578
aS'inconsistence'
p579
aS'writhe'
p580
aS'timidity'
p581
aS'object'
p582
aS'improbable'
p583
aS'vexing'
p584
aS'mashed'
p585
aS'subpoenas'
p586
aS'chatterbox'
p587
aS'addict'
p588
aS'conceded'
p589
aS'fluster'
p590
aS'insurmountably'
p591
aS'drought'
p592
aS'panic'
p593
aS'spinster'
p594
aS'inconsistency'
p595
aS'illogical'
p596
aS'inadverently'
p597
aS'stupid'
p598
aS'regreted'
p599
aS'mushy'
p600
aS'alarm'
p601
aS'devastating'
p602
aS'sober'
p603
aS'spitefulness'
p604
aS'nettle'
p605
aS'self-destructive'
p606
aS'disaffect'
p607
aS'ridiculous'
p608
aS'pest'
p609
aS'inaccuracies'
p610
aS'scorching'
p611
aS'subordinate'
p612
aS'; Opinion Lexicon: Negative'
p613
aS'execrate'
p614
aS'annoyed'
p615
aS'incomplete'
p616
aS'fussy'
p617
aS'discontent'
p618
aS'prik'
p619
aS'bomb'
p620
aS'overpriced'
p621
aS'scornfully'
p622
aS'brutalities'
p623
aS'chore'
p624
aS'heckles'
p625
aS'musty'
p626
aS'dupe'
p627
aS'uneasiness'
p628
aS'discourteous'
p629
aS'incoherently'
p630
aS'ill-advised'
p631
aS'lethal'
p632
aS'heckled'
p633
aS'sags'
p634
aS'cheaply'
p635
aS'capitulate'
p636
aS'vindictive'
p637
aS'die-hard'
p638
aS'thumbs-down'
p639
aS'painfully'
p640
aS'spite'
p641
aS'undignified'
p642
aS'heretical'
p643
aS'delays'
p644
aS'debts'
p645
aS'haze'
p646
aS'cripple'
p647
aS'brimstone'
p648
aS'leakages'
p649
aS'disgust'
p650
aS'dismayingly'
p651
aS'foolishly'
p652
aS'enslave'
p653
aS'nightmarishly'
p654
aS'hoard'
p655
aS'hardball'
p656
aS'emphatically'
p657
aS'ludicrous'
p658
aS'protracted'
p659
aS'riled'
p660
aS'hostility'
p661
aS'smut'
p662
aS'denounce'
p663
aS'degradation'
p664
aS'baffle'
p665
aS'cracks'
p666
aS'slanderous'
p667
aS'smug'
p668
aS'impractical'
p669
aS'nasty'
p670
aS'ill-designed'
p671
aS'tawdry'
p672
aS'belabor'
p673
aS'discoutinous'
p674
aS';       and Comparing Opinions on the Web." Proceedings of the 14th'
p675
aS'horrifys'
p676
aS'broken-hearted'
p677
aS'anxiously'
p678
aS'collusion'
p679
aS'idiotic'
p680
aS'enraging'
p681
aS'illegitimate'
p682
aS'heavyhearted'
p683
aS'bad'
p684
aS'unrelentingly'
p685
aS'isolation'
p686
aS'nefariously'
p687
aS'implication'
p688
aS'upheaval'
p689
aS'ruins'
p690
aS'dismissively'
p691
aS'erroneous'
p692
aS'unworthy'
p693
aS'disaster'
p694
aS'gallingly'
p695
aS'second-class'
p696
aS'inept'
p697
aS'uncooperative'
p698
aS'pointlessly'
p699
aS'over-valuation'
p700
aS'inapt'
p701
aS'unexpectedly'
p702
aS'desolately'
p703
aS'damnation'
p704
aS'horrendous'
p705
aS'corrupt'
p706
aS'disturbing'
p707
aS'resigned'
p708
aS'mournfully'
p709
aS'diffidence'
p710
aS'crowdedness'
p711
aS'inappropriate'
p712
aS'scrap'
p713
aS'insolently'
p714
aS'solicitude'
p715
aS'startle'
p716
aS'deceptively'
p717
aS'arcane'
p718
aS'disprove'
p719
aS'scorn'
p720
aS'sloooow'
p721
aS'incomprehension'
p722
aS'ire'
p723
aS'lethargic'
p724
aS'skimpy'
p725
aS'indecisive'
p726
aS'infidel'
p727
aS'irately'
p728
aS'squealing'
p729
aS'womanizer'
p730
aS'confusion'
p731
aS'juddering'
p732
aS'inextricable'
p733
aS'detracting'
p734
aS'contort'
p735
aS'weary'
p736
aS'inextricably'
p737
aS'stress'
p738
aS'defiance'
p739
aS'downgrade'
p740
aS'miser'
p741
aS'debt'
p742
aS'uncreative'
p743
aS'blasted'
p744
aS'pity'
p745
aS'spoilled'
p746
aS'disorderly'
p747
aS'stark'
p748
aS'irregular'
p749
aS'decrepitude'
p750
aS'fallacious'
p751
aS'incense'
p752
aS'dissapointed'
p753
aS'harridan'
p754
aS'pertinacious'
p755
aS'dents'
p756
aS'hypocrites'
p757
aS'gainsayer'
p758
aS'escapade'
p759
aS'overstatements'
p760
aS'stingingly'
p761
aS'obscenity'
p762
aS'mortified'
p763
aS';       Proceedings of the ACM SIGKDD International Conference on Knowledge'
p764
aS'unclear'
p765
aS'irresponsible'
p766
aS'troublesome'
p767
aS'epidemic'
p768
aS'condescending'
p769
aS'vindictiveness'
p770
aS'matte'
p771
aS'irresponsibly'
p772
aS'infirm'
p773
aS'capsize'
p774
aS'frenetic'
p775
aS'snag'
p776
aS'licentious'
p777
aS'comical'
p778
aS'penalize'
p779
aS'hasseling'
p780
aS'petty'
p781
aS'ineloquent'
p782
aS'incomparable'
p783
aS'backwardness'
p784
aS'foully'
p785
aS'condemned'
p786
aS'disgracefully'
p787
aS'bothers'
p788
aS'vomits'
p789
aS'detrimental'
p790
aS'bedlamite'
p791
aS'splatter'
p792
aS'incomparably'
p793
aS'assult'
p794
aS'unlamentable'
p795
aS'incompetent'
p796
aS'leech'
p797
aS'refuted'
p798
aS'obese'
p799
aS'wheedle'
p800
aS'fleeting'
p801
aS'plebeian'
p802
aS'beastly'
p803
aS'suppress'
p804
aS'prison'
p805
aS'bereavement'
p806
aS'inconsolable'
p807
aS'disgruntle'
p808
aS'anti-us'
p809
aS'inconsolably'
p810
aS'imbroglio'
p811
aS'dissention'
p812
aS'doubts'
p813
aS'sloow'
p814
aS'misinterpret'
p815
aS'hard-hit'
p816
aS'lunaticism'
p817
aS'cunt'
p818
aS'chill'
p819
aS'distorts'
p820
aS';   Bing Liu, Minqing Hu and Junsheng Cheng. "Opinion Observer: Analyzing'
p821
aS'inhibit'
p822
aS'gritty'
p823
aS'harms'
p824
aS'sly'
p825
aS'sardonic'
p826
aS'apprehension'
p827
aS'semi-retarded'
p828
aS'scars'
p829
aS'unwillingness'
p830
aS'ugly'
p831
aS'mortifying'
p832
aS'ail'
p833
aS'abrupt'
p834
aS'hates'
p835
aS'niggles'
p836
aS'pitiable'
p837
aS'cracked'
p838
aS'mangle'
p839
aS'mistake'
p840
aS'pessimistic'
p841
aS'ridiculously'
p842
aS'stink'
p843
aS'cons'
p844
aS'provocative'
p845
aS'divisively'
p846
aS'manipulators'
p847
aS'whine'
p848
aS'dumped'
p849
aS'spoilages'
p850
aS'sting'
p851
aS'shame'
p852
aS'violent'
p853
aS'dizzy'
p854
aS'creepy'
p855
aS'subversive'
p856
aS'exile'
p857
aS'misaligns'
p858
aS'unproved'
p859
aS'discomfititure'
p860
aS'sever'
p861
aS'cataclysmal'
p862
aS'overstated'
p863
aS'damaged'
p864
aS'reprimand'
p865
aS'regrettably'
p866
aS'lacking'
p867
aS'pry'
p868
aS'wound'
p869
aS'fatal'
p870
aS'grapple'
p871
aS'complex'
p872
aS'drop-out'
p873
aS'damages'
p874
aS'contaminate'
p875
aS'incorrectly'
p876
aS'wicked'
p877
aS'silly'
p878
aS'glibly'
p879
aS'lacks'
p880
aS'emphatic'
p881
aS'vibrates'
p882
aS'condemnation'
p883
aS'fuss'
p884
aS'ill-usage'
p885
aS'unbearable'
p886
aS'troubling'
p887
aS'racy'
p888
aS'hang'
p889
aS'demolisher'
p890
aS'evil'
p891
aS'inaptitude'
p892
aS'sloww'
p893
aS'vibrated'
p894
aS'jealous'
p895
aS'terribly'
p896
aS'haggard'
p897
aS'incredulously'
p898
aS'intrusion'
p899
aS'immaterial'
p900
aS'askance'
p901
aS'forceful'
p902
aS'failing'
p903
aS'trick'
p904
aS'taint'
p905
aS'detracted'
p906
aS'ragged'
p907
aS'fanatically'
p908
aS'impediment'
p909
aS'subpoena'
p910
aS'incapable'
p911
aS'impertinent'
p912
aS'uneasy'
p913
aS'upsettingly'
p914
aS'bereave'
p915
aS'stringent'
p916
aS'mockeries'
p917
aS'wasteful'
p918
aS'scam'
p919
aS'anti-social'
p920
aS'bruise'
p921
aS'forsaken'
p922
aS'beset'
p923
aS'shortcomings'
p924
aS'spurn'
p925
aS'thug'
p926
aS'puzzling'
p927
aS'plight'
p928
aS'impending'
p929
aS'toughness'
p930
aS'unable'
p931
aS'vibration'
p932
aS'seedy'
p933
aS'passive'
p934
aS'prejudge'
p935
aS'overemphasize'
p936
aS'prisoner'
p937
aS'rumor'
p938
aS'marginal'
p939
aS'falter'
p940
aS'pitiful'
p941
aS'moody'
p942
aS'trashed'
p943
aS'erratically'
p944
aS'rremediable'
p945
aS'mocked'
p946
aS'insensitive'
p947
aS'salacious'
p948
aS'knock'
p949
aS'involuntary'
p950
aS'inequitable'
p951
aS'breaks'
p952
aS'disagreement'
p953
aS'addicts'
p954
aS'bungling'
p955
aS'rampant'
p956
aS'perfunctory'
p957
aS'deprave'
p958
aS'orphan'
p959
aS'rhetorical'
p960
aS'bastards'
p961
aS'unlikely'
p962
aS'contrariness'
p963
aS'burns'
p964
aS'unfounded'
p965
aS'retreat'
p966
aS'disadvantage'
p967
aS'nauseate'
p968
aS'sickness'
p969
aS'oppressiveness'
p970
aS'brutality'
p971
aS'disinclination'
p972
aS'hogs'
p973
aS'contradict'
p974
aS'jumpy'
p975
aS'dishonest'
p976
aS'unnecessary'
p977
aS'inadverent'
p978
aS'lapsed'
p979
aS'unsuspecting'
p980
aS'farcically'
p981
aS'disillusioned'
p982
aS'overrated'
p983
aS'erodes'
p984
aS'arbitrary'
p985
aS'hung'
p986
aS'notorious'
p987
aS'meddlesome'
p988
aS'bonkers'
p989
aS'warily'
p990
aS'squander'
p991
aS'stereotype'
p992
aS'detraction'
p993
aS'frustrations'
p994
aS'stern'
p995
aS'deaf'
p996
aS'dead'
p997
aS'accost'
p998
aS'rile'
p999
aS'commonplace'
p1000
aS'hassle'
p1001
aS'self-interest'
p1002
aS'displeasure'
p1003
aS'pugnacious'
p1004
aS'prick'
p1005
aS'bore'
p1006
aS'contaminating'
p1007
aS'creep'
p1008
aS'confusing'
p1009
aS'denies'
p1010
aS';   Minqing Hu and Bing Liu. "Mining and Summarizing Customer Reviews."'
p1011
aS'dense'
p1012
aS'exhausts'
p1013
aS'inhuman'
p1014
aS'distrust'
p1015
aS'gruesomely'
p1016
aS'repression'
p1017
aS'flounder'
p1018
aS'remorselessness'
p1019
aS'indoctrination'
p1020
aS'grumble'
p1021
aS'denied'
p1022
aS'unnoticed'
p1023
aS'polluter'
p1024
aS'cash-strapped'
p1025
aS'plot'
p1026
aS'concen'
p1027
aS'sketchy'
p1028
aS'burn'
p1029
aS'blackmail'
p1030
aS'angriness'
p1031
aS'superfluous'
p1032
aS'break-ups'
p1033
aS'stooge'
p1034
aS'confrontation'
p1035
aS'defensive'
p1036
aS'losing'
p1037
aS'reviled'
p1038
aS'insanity'
p1039
aS'hardliners'
p1040
aS'chafe'
p1041
aS'limitation'
p1042
aS'chaff'
p1043
aS'hard'
p1044
aS'scandels'
p1045
aS'lackey'
p1046
aS'attacks'
p1047
aS'grievously'
p1048
aS'anomalous'
p1049
aS'choke'
p1050
aS'fat-cat'
p1051
aS'cliche'
p1052
aS'despair'
p1053
aS'genocide'
p1054
aS'guile'
p1055
aS'lacked'
p1056
aS'blabber'
p1057
aS'primitive'
p1058
aS'indecency'
p1059
aS'dilemma'
p1060
aS'anxiousness'
p1061
aS'lied'
p1062
aS'deploringly'
p1063
aS'infraction'
p1064
aS'obscene'
p1065
aS'quibbles'
p1066
aS'lier'
p1067
aS'fumes'
p1068
aS'overkill'
p1069
aS'over-acted'
p1070
aS'wobbled'
p1071
aS'besmirch'
p1072
aS'lewd'
p1073
aS'nuisance'
p1074
aS'strangely'
p1075
aS'annoyance'
p1076
aS'hard-liner'
p1077
aS'despised'
p1078
aS'deception'
p1079
aS'disinterest'
p1080
aS'ill-sorted'
p1081
aS'jealousy'
p1082
aS'overblown'
p1083
aS'flat-out'
p1084
aS'unwell'
p1085
aS'derision'
p1086
aS'counterproductive'
p1087
aS'extremism'
p1088
aS'gimmicked'
p1089
aS'lurid'
p1090
aS'questionable'
p1091
aS'intolerance'
p1092
aS'insurrection'
p1093
aS'abysmal'
p1094
aS'immorality'
p1095
aS'taboo'
p1096
aS'lapses'
p1097
aS'regretted'
p1098
aS'discourage'
p1099
aS'gripes'
p1100
aS'heinous'
p1101
aS'failure'
p1102
aS'inexorable'
p1103
aS'ultra-hardline'
p1104
aS'tacky'
p1105
aS'misfit'
p1106
aS'surrender'
p1107
aS'atrocities'
p1108
aS'dump'
p1109
aS'humiliate'
p1110
aS'injury'
p1111
aS'thoughtlessly'
p1112
aS'trash'
p1113
aS'ruined'
p1114
aS'break-up'
p1115
aS'insincere'
p1116
aS'invidiously'
p1117
aS'torturing'
p1118
aS'afflictive'
p1119
aS'calumniation'
p1120
aS'insincerely'
p1121
aS'horrifying'
p1122
aS'propaganda'
p1123
aS'panicky'
p1124
aS'tarnishes'
p1125
aS'discountenance'
p1126
aS'disgrace'
p1127
aS'impoverish'
p1128
aS'scandalous'
p1129
aS'fury'
p1130
aS'infections'
p1131
aS'impolitic'
p1132
aS'wretched'
p1133
aS'opportunistic'
p1134
aS'crumble'
p1135
aS'ill-natured'
p1136
aS'despotism'
p1137
aS'tarnished'
p1138
aS'fidget'
p1139
aS'sugar-coat'
p1140
aS'mediocre'
p1141
aS'dent'
p1142
aS'harassment'
p1143
aS'shit'
p1144
aS'graft'
p1145
aS'blatantly'
p1146
aS'radically'
p1147
aS'oversimplification'
p1148
aS'discriminate'
p1149
aS'disputable'
p1150
aS'dying'
p1151
aS'polarisation'
p1152
aS'disaccord'
p1153
aS'meanness'
p1154
aS'disloyal'
p1155
aS'jitters'
p1156
aS'desecrate'
p1157
aS'stagnant'
p1158
aS'complicit'
p1159
aS'evasive'
p1160
aS';       Bing Liu. "Sentiment Analysis and Subjectivity." An chapter in'
p1161
aS'exhaustion'
p1162
aS'smelled'
p1163
aS'enemies'
p1164
aS'erosion'
p1165
aS'tardy'
p1166
aS'mudslinger'
p1167
aS'squeals'
p1168
aS'disastrously'
p1169
aS'exagerate'
p1170
aS'dies'
p1171
aS'geezer'
p1172
aS'guiltily'
p1173
aS'illogic'
p1174
aS'miscellaneous'
p1175
aS'one-sided'
p1176
aS'paralize'
p1177
aS'unnervingly'
p1178
aS'fell'
p1179
aS'scorchingly'
p1180
aS'fruitlessly'
p1181
aS'persecution'
p1182
aS'anti-white'
p1183
aS'scratchy'
p1184
aS'died'
p1185
aS'congested'
p1186
aS'downer'
p1187
aS'cheated'
p1188
aS'expropriate'
p1189
aS'faze'
p1190
aS'ploy'
p1191
aS'self-serving'
p1192
aS'quandary'
p1193
aS'inimically'
p1194
aS'dilapidated'
p1195
aS'rough'
p1196
aS'cheater'
p1197
aS'frustrates'
p1198
aS'denunciate'
p1199
aS'backward'
p1200
aS'raving'
p1201
aS'overdue'
p1202
aS'premeditated'
p1203
aS'wripped'
p1204
aS'irrecoverably'
p1205
aS'hardheaded'
p1206
aS'hissed'
p1207
aS'dispirit'
p1208
aS'drained'
p1209
aS'disrespectable'
p1210
aS'debauch'
p1211
aS'unhappy'
p1212
aS'vestiges'
p1213
aS'adulteration'
p1214
aS'avalanche'
p1215
aS'shimmy'
p1216
aS'jarring'
p1217
aS'adamantly'
p1218
aS'rot'
p1219
aS'irrecoverable'
p1220
aS'misread'
p1221
aS'dissatisfies'
p1222
aS'deceitful'
p1223
aS'foe'
p1224
aS'zealous'
p1225
aS'obsessively'
p1226
aS'sufferer'
p1227
aS'disgusting'
p1228
aS'trivial'
p1229
aS'gutless'
p1230
aS'deject'
p1231
aS'quash'
p1232
aS'dissatisfied'
p1233
aS'negativity'
p1234
aS'weakening'
p1235
aS'perversion'
p1236
aS'terror'
p1237
aS'explode'
p1238
aS'suffered'
p1239
aS'irksome'
p1240
aS'oversight'
p1241
aS'shun'
p1242
aS'jerk'
p1243
aS'allegations'
p1244
aS'unavoidably'
p1245
aS'unfamiliar'
p1246
aS'sloppy'
p1247
aS'liability'
p1248
aS'glaringly'
p1249
aS'cataclysmic'
p1250
aS'ferociously'
p1251
aS'mourn'
p1252
aS'fatigued'
p1253
aS'tanks'
p1254
aS'starvation'
p1255
aS'trouble'
p1256
aS'feeble'
p1257
aS'dim'
p1258
aS'din'
p1259
aS'dismalness'
p1260
aS'strain'
p1261
aS'die'
p1262
aS'fragile'
p1263
aS'cloudy'
p1264
aS'invidious'
p1265
aS'grimace'
p1266
aS'encroach'
p1267
aS'smallish'
p1268
aS'scaly'
p1269
aS'uncomfy'
p1270
aS'ill-formed'
p1271
aS'tetchily'
p1272
aS'distasteful'
p1273
aS'wanton'
p1274
aS'unexpected'
p1275
aS'invader'
p1276
aS'ill-conceived'
p1277
aS'uproarously'
p1278
aS'insignificant'
p1279
aS'disvalue'
p1280
aS'sneakily'
p1281
aS'inconsequential'
p1282
aS'inconsiderately'
p1283
aS'slowed'
p1284
aS'bombardment'
p1285
aS'pratfall'
p1286
aS'passe'
p1287
aS'perplexity'
p1288
aS'helpless'
p1289
aS'irritations'
p1290
aS'molest'
p1291
aS'irritated'
p1292
aS'acrimonious'
p1293
aS'distaste'
p1294
aS'curse'
p1295
aS'stressful'
p1296
aS'backwood'
p1297
aS'deluded'
p1298
aS'boggle'
p1299
aS'jeopardy'
p1300
aS'taxing'
p1301
aS'wretchedness'
p1302
aS'havoc'
p1303
aS'thicker'
p1304
aS'hairloss'
p1305
aS'irritating'
p1306
aS'ineffectual'
p1307
aS'suspect'
p1308
aS'freaks'
p1309
aS'hypocritical'
p1310
aS'drunkard'
p1311
aS'falling'
p1312
aS'dishonestly'
p1313
aS'rumours'
p1314
aS'peculiarly'
p1315
aS'irresolvable'
p1316
aS'paradoxical'
p1317
aS'cripples'
p1318
aS'sardonically'
p1319
aS'hegemonistic'
p1320
aS'unsure'
p1321
aS'stun'
p1322
aS'abscond'
p1323
aS'involuntarily'
p1324
aS'gawk'
p1325
aS'superstition'
p1326
aS'disclaim'
p1327
aS'unfaithfully'
p1328
aS'enflame'
p1329
aS'detest'
p1330
aS'fractious'
p1331
aS'demonizing'
p1332
aS'congestion'
p1333
aS'deceit'
p1334
aS'bulkyness'
p1335
aS'dwindling'
p1336
aS'unkind'
p1337
aS'molestation'
p1338
aS'wastefulness'
p1339
aS'shamelessness'
p1340
aS'impatiently'
p1341
aS'dusty'
p1342
aS'bruises'
p1343
aS'disavow'
p1344
aS'vibrating'
p1345
aS'exploitation'
p1346
aS'burdensome'
p1347
aS'denunciation'
p1348
aS'drab'
p1349
aS'teasingly'
p1350
aS'draconic'
p1351
aS'weird'
p1352
aS'bruised'
p1353
aS'ineffectiveness'
p1354
aS'negatives'
p1355
aS'snobish'
p1356
aS'dissappointed'
p1357
aS'spoonfed'
p1358
aS'problematic'
p1359
aS'discontentedly'
p1360
aS'pessimistically'
p1361
aS'anti-occupation'
p1362
aS'overthrow'
p1363
aS'bribery'
p1364
aS'quibble'
p1365
aS'betraying'
p1366
aS'ironical'
p1367
aS'sufferers'
p1368
aS'fake'
p1369
aS'ailing'
p1370
aS'embarrassing'
p1371
aS'flagging'
p1372
aS'crisis'
p1373
aS'stingy'
p1374
aS'grumpish'
p1375
aS'tedious'
p1376
aS'flareup'
p1377
aS'impunity'
p1378
aS'senile'
p1379
aS'confounded'
p1380
aS'angry'
p1381
aS'maliciousness'
p1382
aS'ravage'
p1383
aS'; Notes:'
p1384
aS'jam'
p1385
aS'underpowered'
p1386
aS'slowww'
p1387
aS'melodramatically'
p1388
aS'distraughtly'
p1389
aS'retardedness'
p1390
aS'marginally'
p1391
aS'plaything'
p1392
aS'blotchy'
p1393
aS'dismay'
p1394
aS'smudged'
p1395
aS'ambiguity'
p1396
aS'condescension'
p1397
aS'dislikes'
p1398
aS'naively'
p1399
aS'ill-defined'
p1400
aS'demonized'
p1401
aS'stinging'
p1402
aS'downhearted'
p1403
aS'insultingly'
p1404
aS'throbbed'
p1405
aS'dismal'
p1406
aS'degrade'
p1407
aS'scratches'
p1408
aS'judder'
p1409
aS'demonizes'
p1410
aS'misconception'
p1411
aS'painfull'
p1412
aS'degenerately'
p1413
aS'spoilage'
p1414
aS'demolish'
p1415
aS'bemoaning'
p1416
aS'degradingly'
p1417
aS'uncouth'
p1418
aS'deformed'
p1419
aS'uneven'
p1420
aS'overloaded'
p1421
aS'dissembler'
p1422
aS'hubris'
p1423
aS'instable'
p1424
aS'flaking'
p1425
aS'sour'
p1426
aS';       Washington, USA,'
p1427
aS'inferior'
p1428
aS'wobbles'
p1429
aS'batty'
p1430
aS'indignant'
p1431
aS'crazy'
p1432
aS'grouchy'
p1433
aS'corrupted'
p1434
aS'perversity'
p1435
aS'downfall'
p1436
aS'vex'
p1437
aS'hostilities'
p1438
aS'confused'
p1439
aS'overzealous'
p1440
aS'inexperience'
p1441
aS'disbelieve'
p1442
aS'abort'
p1443
aS'intransigent'
p1444
aS'battered'
p1445
aS'confuses'
p1446
aS'provoke'
p1447
aS'stole'
p1448
aS'craze'
p1449
aS'squabbling'
p1450
aS'ill-treated'
p1451
aS'indifferent'
p1452
aS'bankrupt'
p1453
aS'unnerving'
p1454
aS'stricken'
p1455
aS'malevolence'
p1456
aS'inundated'
p1457
aS'delirious'
p1458
aS'meager'
p1459
aS'freezes'
p1460
aS'incivility'
p1461
aS'infringements'
p1462
aS'misleading'
p1463
aS'irascible'
p1464
aS'deteriorate'
p1465
aS'unbelievable'
p1466
aS'mar'
p1467
aS'unpleasantries'
p1468
aS'irrational'
p1469
aS'crashes'
p1470
aS'critics'
p1471
aS'freezing'
p1472
aS'scoff'
p1473
aS'brazen'
p1474
aS'disgusted'
p1475
aS'pathetic'
p1476
aS'crashed'
p1477
aS'heartbreaking'
p1478
aS'scratch'
p1479
aS'mad'
p1480
aS'inconsequentially'
p1481
aS'mocks'
p1482
aS'drastic'
p1483
aS'suck'
p1484
aS'destructive'
p1485
aS'filthy'
p1486
aS'shockingly'
p1487
aS'brainless'
p1488
aS'egotistical'
p1489
aS'disagreeable'
p1490
aS'vomited'
p1491
aS'disheartening'
p1492
aS'aimless'
p1493
aS'awkward'
p1494
aS'bid-rigging'
p1495
aS'direness'
p1496
aS'stupidly'
p1497
aS'misbegotten'
p1498
aS'scolding'
p1499
aS'meddle'
p1500
aS'needy'
p1501
aS'darkened'
p1502
aS'malaise'
p1503
aS'infidels'
p1504
aS'crept'
p1505
aS'deceive'
p1506
aS'imprecision'
p1507
aS'offend'
p1508
aS'disagreeably'
p1509
aS'bungle'
p1510
aS'drunken'
p1511
aS'fatuity'
p1512
aS'forfeit'
p1513
aS'shaky'
p1514
aS'unacceptable'
p1515
aS'entangle'
p1516
aS'spookier'
p1517
aS'nefarious'
p1518
aS'shake'
p1519
aS'horrify'
p1520
aS'cold'
p1521
aS'irresolute'
p1522
aS'froze'
p1523
aS'setbacks'
p1524
aS'unlucky'
p1525
aS'revenge'
p1526
aS'gibber'
p1527
aS'dangerousness'
p1528
aS'despotic'
p1529
aS'injudicious'
p1530
aS'lackluster'
p1531
aS'unethical'
p1532
aS'harassed'
p1533
aS'troubles'
p1534
aS'scrambling'
p1535
aS'disconcertingly'
p1536
aS'wasting'
p1537
aS'sinfully'
p1538
aS'suffocate'
p1539
aS'suspicion'
p1540
aS'sickening'
p1541
aS'dreadfully'
p1542
aS'antipathy'
p1543
aS'oversize'
p1544
aS'stupify'
p1545
aS'swindle'
p1546
aS'loophole'
p1547
aS'abusive'
p1548
aS'inefficiency'
p1549
aS'lonely'
p1550
aS'aching'
p1551
aS'smash'
p1552
aS'condescendingly'
p1553
aS'devastated'
p1554
aS'illogically'
p1555
aS'killer'
p1556
aS'bashful'
p1557
aS'maniacal'
p1558
aS'sarcastic'
p1559
aS'nonsense'
p1560
aS'toxic'
p1561
aS'flareups'
p1562
aS'steal'
p1563
aS'infamously'
p1564
aS'unviewable'
p1565
aS'sporadic'
p1566
aS'uncontrolled'
p1567
aS'bullshit'
p1568
aS'devastates'
p1569
aS'wily'
p1570
aS'vain'
p1571
aS'untenable'
p1572
aS'feverish'
p1573
aS'lies'
p1574
aS'irragularity'
p1575
aS'resignation'
p1576
aS'upseting'
p1577
aS'misgivings'
p1578
aS'gabble'
p1579
aS'stuck'
p1580
aS'fawningly'
p1581
aS'outrageously'
p1582
aS'careless'
p1583
aS'craftily'
p1584
aS'instability'
p1585
aS'troublingly'
p1586
aS'subjection'
p1587
aS'sorrowfully'
p1588
aS'nettlesome'
p1589
aS'ailment'
p1590
aS'disconsolately'
p1591
aS'busts'
p1592
aS'crushing'
p1593
aS'abnormal'
p1594
aS'indeterminable'
p1595
aS'inopportune'
p1596
aS'aloof'
p1597
aS'lanky'
p1598
aS'vociferously'
p1599
aS'dripped'
p1600
aS'hysteric'
p1601
aS'hiliarious'
p1602
aS'giddy'
p1603
aS'impurity'
p1604
aS'infuriated'
p1605
aS'bulkiness'
p1606
aS'irony'
p1607
aS'belligerence'
p1608
aS'inadequacy'
p1609
aS'extremists'
p1610
aS'astray'
p1611
aS'hastily'
p1612
aS'condemns'
p1613
aS'trauma'
p1614
aS'smells'
p1615
aS'tetchy'
p1616
aS'macabre'
p1617
aS'stench'
p1618
aS'bugging'
p1619
aS'mistified'
p1620
aS'busybody'
p1621
aS'inevitably'
p1622
aS'dumbfound'
p1623
aS'disintegrated'
p1624
aS'siege'
p1625
aS'hefty'
p1626
aS'carp'
p1627
aS'liable'
p1628
aS'smudge'
p1629
aS'sneak'
p1630
aS'disrespect'
p1631
aS'disintegrates'
p1632
aS'bumps'
p1633
aS'miscreants'
p1634
aS'complicated'
p1635
aS'irrationalities'
p1636
aS'dehumanization'
p1637
aS'worrier'
p1638
aS'bumpy'
p1639
aS'frazzled'
p1640
aS'dissonant'
p1641
aS'ominous'
p1642
aS'inevitable'
p1643
aS'delude'
p1644
aS'straggler'
p1645
aS'tangles'
p1646
aS'imposers'
p1647
aS'unsound'
p1648
aS'flare'
p1649
aS'disillusionment'
p1650
aS'impose'
p1651
aS'gaff'
p1652
aS'downsides'
p1653
aS'spews'
p1654
aS'funky'
p1655
aS'tangled'
p1656
aS'invalidity'
p1657
aS'desultory'
p1658
aS'brutalize'
p1659
aS'tiresome'
p1660
aS'outcry'
p1661
aS'discontinued'
p1662
aS'puny'
p1663
aS'blind'
p1664
aS'feign'
p1665
aS'impossibly'
p1666
aS'fleeing'
p1667
aS'dungeons'
p1668
aS'incongruous'
p1669
aS'indecent'
p1670
aS'awfully'
p1671
aS'clumsy'
p1672
aS'untrue'
p1673
aS'womanizing'
p1674
aS'punishable'
p1675
aS'anti-'
p1676
aS'ill-used'
p1677
aS'lags'
p1678
aS'cheesy'
p1679
aS'incompetently'
p1680
aS'languish'
p1681
aS'disinterested'
p1682
aS'imprecate'
p1683
aS'thoughtless'
p1684
aS'wrath'
p1685
aS'ruinous'
p1686
aS'murky'
p1687
aS'ill-favored'
p1688
aS'callous'
p1689
aS'autocrat'
p1690
aS'imposing'
p1691
aS'shiver'
p1692
aS'tragic'
p1693
aS'lambaste'
p1694
aS'jutter'
p1695
aS'daunt'
p1696
aS'oversimplified'
p1697
aS'malevolent'
p1698
aS'bloodshed'
p1699
aS'gaudy'
p1700
aS'inefficient'
p1701
aS'uninformed'
p1702
aS'despoiler'
p1703
aS'indoctrinate'
p1704
aS'hurtful'
p1705
aS'refuse'
p1706
aS'traduce'
p1707
aS'obstinately'
p1708
aS'shrouded'
p1709
aS'mawkishly'
p1710
aS'fooled'
p1711
aS'junkyard'
p1712
aS'fatefully'
p1713
aS'chintzy'
p1714
aS'set-up'
p1715
aS'petrified'
p1716
aS'bewitch'
p1717
aS'dinky'
p1718
aS'disses'
p1719
aS'depressed'
p1720
aS'rival'
p1721
aS'stammer'
p1722
aS'scourge'
p1723
aS'warned'
p1724
aS'selfishly'
p1725
aS'dissed'
p1726
aS'racists'
p1727
aS'smelling'
p1728
aS'impinge'
p1729
aS'extinguish'
p1730
aS'simplistically'
p1731
aS'damned'
p1732
aS'disasterous'
p1733
aS'tortures'
p1734
aS'illness'
p1735
aS'contentious'
p1736
aS'unfairly'
p1737
aS'swamped'
p1738
aS'aspersion'
p1739
aS'spiteful'
p1740
aS'improbability'
p1741
aS'sag'
p1742
aS'slap'
p1743
aS'crippling'
p1744
aS'picketing'
p1745
aS'conspiracy'
p1746
aS'distorted'
p1747
aS'anger'
p1748
aS'perplexing'
p1749
aS'bewilderingly'
p1750
aS'blunder'
p1751
aS'dismissive'
p1752
aS'bait'
p1753
aS'frenzied'
p1754
aS'mispronounces'
p1755
aS'mislead'
p1756
aS'lumpy'
p1757
aS'scar'
p1758
aS'sanctimonious'
p1759
aS'isolate'
p1760
aS'shocked'
p1761
aS'plague'
p1762
aS'rascals'
p1763
aS'fictitious'
p1764
aS'beggarly'
p1765
aS'fracture'
p1766
aS'mispronounced'
p1767
aS'destroy'
p1768
aS'hedonistic'
p1769
aS'blinding'
p1770
aS'blunt'
p1771
aS'pimple'
p1772
aS'jeering'
p1773
aS'ironically'
p1774
aS'brazenness'
p1775
aS'pain'
p1776
aS'selfinterested'
p1777
aS'oppressive'
p1778
aS'infiltrators'
p1779
aS'impulsively'
p1780
aS'slump'
p1781
aS'betrayal'
p1782
aS'falls'
p1783
aS'boiling'
p1784
aS'assault'
p1785
aS'slowest'
p1786
aS'rants'
p1787
aS'satirical'
p1788
aS'd*mn'
p1789
aS'complaints'
p1790
aS'hardships'
p1791
aS'conspicuous'
p1792
aS'shrilly'
p1793
aS'uncompetitive'
p1794
aS'touchy'
p1795
aS'blockhead'
p1796
aS'helplessly'
p1797
aS'bitchy'
p1798
aS'massacres'
p1799
aS'wreaked'
p1800
aS'scowl'
p1801
aS'slaves'
p1802
aS'cruelly'
p1803
aS'jittery'
p1804
aS'hestitant'
p1805
aS'iniquitous'
p1806
aS'partisan'
p1807
aS'watered-down'
p1808
aS'intoxicate'
p1809
aS'drastically'
p1810
aS'usurp'
p1811
aS'cheat'
p1812
aS'infuriate'
p1813
aS'disunity'
p1814
aS'cheap'
p1815
aS'unruly'
p1816
aS'friction'
p1817
aS'yawn'
p1818
aS'inconsistent'
p1819
aS'hack'
p1820
aS'tentatively'
p1821
aS'scarce'
p1822
aS'aggressive'
p1823
aS'calumnies'
p1824
aS'hustler'
p1825
aS'crashing'
p1826
aS'nemesis'
p1827
aS'despairingly'
p1828
aS'stormy'
p1829
aS'downturns'
p1830
aS'dick'
p1831
aS'retards'
p1832
aS'jolt'
p1833
aS'shimmer'
p1834
aS'crime'
p1835
aS'staid'
p1836
aS'direly'
p1837
aS'fickle'
p1838
aS'difficulties'
p1839
aS'incredulous'
p1840
aS'disconcerting'
p1841
aS'deign'
p1842
aS'unravel'
p1843
aS'stain'
p1844
aS'malcontent'
p1845
aS'shrill'
p1846
aS'perfidity'
p1847
aS'dispute'
p1848
aS'graceless'
p1849
aS'exaggeration'
p1850
aS'cramping'
p1851
aS'hostage'
p1852
aS'begging'
p1853
aS'tricked'
p1854
aS'loath'
p1855
aS'unimportant'
p1856
aS'misinform'
p1857
aS'mope'
p1858
aS'hedge'
p1859
aS'distortion'
p1860
aS'treachery'
p1861
aS'cautionary'
p1862
aS'revulsion'
p1863
aS'freaking'
p1864
aS'impetuously'
p1865
aS'beseech'
p1866
aS'deprecate'
p1867
aS'lame'
p1868
aS'sabotage'
p1869
aS'obliterate'
p1870
aS'imbecile'
p1871
aS'impolite'
p1872
aS'absurdly'
p1873
aS'worried'
p1874
aS'joker'
p1875
aS'indeterminably'
p1876
aS'barbaric'
p1877
aS'lewdly'
p1878
aS'losers'
p1879
aS'disgruntled'
p1880
aS'inhumane'
p1881
aS'worries'
p1882
aS'flaunt'
p1883
aS'disparage'
p1884
aS'downfallen'
p1885
aS'worrying'
p1886
aS'ghastly'
p1887
aS'kook'
p1888
aS'lethargy'
p1889
aS'criticized'
p1890
aS'arduously'
p1891
aS'audaciously'
p1892
aS'uneconomical'
p1893
aS'blurred'
p1894
aS'famine'
p1895
aS'gangster'
p1896
aS'unfit'
p1897
aS'disquietingly'
p1898
aS'slashing'
p1899
aS'recalcitrant'
p1900
aS'hell'
p1901
aS'culpable'
p1902
aS'misguided'
p1903
aS'underpaid'
p1904
aS'concern'
p1905
aS'fails'
p1906
aS'inequalities'
p1907
aS'upsets'
p1908
aS'crooked'
p1909
aS'alarming'
p1910
aS'incite'
p1911
aS'haughty'
p1912
aS'wrought'
p1913
aS'belittled'
p1914
aS'altercation'
p1915
aS'vindictively'
p1916
aS'hiss'
p1917
aS'impure'
p1918
aS'ineloquently'
p1919
aS'untrustworthy'
p1920
aS'forsake'
p1921
aS'pitiless'
p1922
aS'inappropriately'
p1923
aS'checkered'
p1924
aS'pettifog'
p1925
aS'messed'
p1926
aS'self-humiliation'
p1927
aS'killing'
p1928
aS'blame'
p1929
aS'disrespectfully'
p1930
aS'disdainful'
p1931
aS'floundering'
p1932
aS'unsecure'
p1933
aS'hurts'
p1934
aS'menacing'
p1935
aS'harshly'
p1936
aS'indiscriminate'
p1937
aS'venomously'
p1938
aS'undermine'
p1939
aS'dissidence'
p1940
aS'quack'
p1941
aS'retaliatory'
p1942
aS'farcical'
p1943
aS'gimmicky'
p1944
aS'embarrassment'
p1945
aS'murderously'
p1946
aS'inanely'
p1947
aS'fulminate'
p1948
aS'misrepresentation'
p1949
aS'dissidents'
p1950
aS'crabby'
p1951
aS'belie'
p1952
aS'tout'
p1953
aS'disappointment'
p1954
aS'reluctantly'
p1955
aS'delirium'
p1956
aS'calumniate'
p1957
aS'shamefully'
p1958
aS'repulsively'
p1959
aS'jitter'
p1960
aS'provocation'
p1961
aS'cancer'
p1962
aS'extravagantly'
p1963
aS'foreboding'
p1964
aS'slogged'
p1965
aS'spank'
p1966
aS'resentment'
p1967
aS'accusation'
p1968
aS'exploit'
p1969
aS'unwarranted'
p1970
aS';       mistakes. They are included as these misspelled words appear'
p1971
aS'bizarre'
p1972
aS'mortification'
p1973
aS'skeletons'
p1974
aS'runaway'
p1975
aS'impropriety'
p1976
aS'sorely'
p1977
aS'quarrelsome'
p1978
aS'intrude'
p1979
aS'caricature'
p1980
aS'undercuts'
p1981
aS'sloooooooooooooow'
p1982
aS'sucker'
p1983
aS'menacingly'
p1984
aS'wobble'
p1985
aS'concede'
p1986
aS'donside'
p1987
aS'needlessly'
p1988
aS'raging'
p1989
aS'dictator'
p1990
aS'sinful'
p1991
aS'jerky'
p1992
aS'confessions'
p1993
aS'layoff-happy'
p1994
aS'diatribe'
p1995
aS'ruining'
p1996
aS'impugn'
p1997
aS'messes'
p1998
aS'devilish'
p1999
aS'unnerve'
p2000
aS'squash'
p2001
aS'jutters'
p2002
aS'thoughtlessness'
p2003
aS'mocking'
p2004
aS'suspicions'
p2005
aS'stalemate'
p2006
aS'vagueness'
p2007
aS'sticky'
p2008
aS'dropouts'
p2009
aS'fallaciously'
p2010
aS'undermines'
p2011
aS'predicament'
p2012
aS'profane'
p2013
aS'flabbergast'
p2014
aS'pretence'
p2015
aS'traumatically'
p2016
aS'scarily'
p2017
aS'unsettlingly'
p2018
aS'handicapped'
p2019
aS'notoriety'
p2020
aS'shatter'
p2021
aS'flicering'
p2022
aS'unfortunate'
p2023
aS'profanity'
p2024
aS'scum'
p2025
aS'skittishly'
p2026
aS'huckster'
p2027
aS'implacable'
p2028
aS'fool'
p2029
aS'unsupported'
p2030
aS'noises'
p2031
aS'sub-par'
p2032
aS'gimmicks'
p2033
aS'twists'
p2034
aS'contrive'
p2035
aS'snobs'
p2036
aS'dissident'
p2037
aS'grumpily'
p2038
aS'blah'
p2039
aS'bias'
p2040
aS'bestial'
p2041
aS'ironic'
p2042
aS'blab'
p2043
aS'worry'
p2044
aS'treacherously'
p2045
aS'creaks'
p2046
aS'debilitating'
p2047
aS'annoying'
p2048
aS'erroneously'
p2049
aS'harsh'
p2050
aS'indelicate'
p2051
aS'injurious'
p2052
aS'mobster'
p2053
aS'underestimate'
p2054
aS'contortions'
p2055
aS'anarchistic'
p2056
aS'struggling'
p2057
aS'moronic'
p2058
aS'dishonorable'
p2059
aS'exhaust'
p2060
aS'pedantic'
p2061
aS'infuriatingly'
p2062
aS'caustically'
p2063
aS'defy'
p2064
aS'refusal'
p2065
aS'wallow'
p2066
aS'lambast'
p2067
aS'disadvantaged'
p2068
aS'devoid'
p2069
aS'domineering'
p2070
aS'protested'
p2071
aS'unqualified'
p2072
aS'disapointing'
p2073
aS'entanglement'
p2074
aS'leer'
p2075
aS'disown'
p2076
aS'weep'
p2077
aS'heartbreakingly'
p2078
aS'complained'
p2079
aS'break'
p2080
aS'drain'
p2081
aS'slanders'
p2082
aS'undefined'
p2083
aS'bondage'
p2084
aS'inelegant'
p2085
aS'idiotically'
p2086
aS'stunted'
p2087
aS'objection'
p2088
aS'melodramatic'
p2089
aS'demean'
p2090
aS'inability'
p2091
aS'repulsive'
p2092
aS'grumpy'
p2093
aS'bumping'
p2094
aS'flakey'
p2095
aS'frigid'
p2096
aS'streaky'
p2097
aS'morons'
p2098
aS'desolate'
p2099
aS'scarred'
p2100
aS'peril'
p2101
aS'fume'
p2102
aS'unconstitutional'
p2103
aS'disconcert'
p2104
aS'slime'
p2105
aS'insults'
p2106
aS'payback'
p2107
aS'manipulation'
p2108
aS'pariah'
p2109
aS'fateful'
p2110
aS'invalid'
p2111
aS'smelly'
p2112
aS'madness'
p2113
aS'inaudible'
p2114
aS'perilous'
p2115
aS'blow'
p2116
aS'death'
p2117
aS'clueless'
p2118
aS'deceiving'
p2119
aS'rigid'
p2120
aS'adulterated'
p2121
aS'occluded'
p2122
aS'senseless'
p2123
aS'bullshyt'
p2124
aS'harrow'
p2125
aS'sorry'
p2126
aS'falsely'
p2127
aS'aborts'
p2128
aS'eviscerate'
p2129
aS'mournful'
p2130
aS'backbite'
p2131
aS'disrupt'
p2132
aS'disproportionate'
p2133
aS'reticent'
p2134
aS'subversively'
p2135
aS'frown'
p2136
aS'kills'
p2137
aS'offence'
p2138
aS'inordinate'
p2139
aS'undependability'
p2140
aS'undermined'
p2141
aS'dark'
p2142
aS'retract'
p2143
aS'inhibition'
p2144
aS'detract'
p2145
aS'parody'
p2146
aS'confined'
p2147
aS'disadvantageous'
p2148
aS'snare'
p2149
aS'glitches'
p2150
aS'disappointed'
p2151
aS'grim'
p2152
aS'distrustful'
p2153
aS'occludes'
p2154
aS'standstill'
p2155
aS'paupers'
p2156
aS'stranger'
p2157
aS'expunge'
p2158
aS'reprehensive'
p2159
aS'sneer'
p2160
aS'undermining'
p2161
aS'dishonorablely'
p2162
aS'wrongful'
p2163
aS'feckless'
p2164
aS'cravenly'
p2165
aS'substandard'
p2166
aS'disoobedient'
p2167
aS'obstruct'
p2168
aS'falsehood'
p2169
aS'apologists'
p2170
aS'afflict'
p2171
aS'debilitate'
p2172
aS'strenuous'
p2173
aS'imprisonment'
p2174
aS'asperse'
p2175
aS'hacks'
p2176
aS'monstrosity'
p2177
aS'erase'
p2178
aS'shortcoming'
p2179
aS'demeaning'
p2180
aS'wrongly'
p2181
aS'derisive'
p2182
aS'irrecoverableness'
p2183
aS'squirm'
p2184
aS'perverse'
p2185
aS'overbalanced'
p2186
aS'renounce'
p2187
aS'douchebag'
p2188
aS'dauntingly'
p2189
aS'fusty'
p2190
aS'conservative'
p2191
aS'unachievable'
p2192
aS'critical'
p2193
aS'crueler'
p2194
aS'ulterior'
p2195
aS'subjugation'
p2196
aS'compulsion'
p2197
aS'knife'
p2198
aS'apocalyptic'
p2199
aS'lawbreaking'
p2200
aS'biased'
p2201
aS'egocentric'
p2202
aS'racism'
p2203
aS'dejection'
p2204
aS'sadden'
p2205
aS'dreadfulness'
p2206
aS'itching'
p2207
aS'aggrieved'
p2208
aS'strained'
p2209
aS'unease'
p2210
aS'despicably'
p2211
aS'disparaging'
p2212
aS'broken'
p2213
aS'despicable'
p2214
aS'dastardly'
p2215
aS'biases'
p2216
aS'hectic'
p2217
aS'infected'
p2218
aS'prattle'
p2219
aS'partiality'
p2220
aS'finicky'
p2221
aS'desiccated'
p2222
aS'sagging'
p2223
aS'emasculate'
p2224
aS'baffled'
p2225
aS'subdued'
p2226
aS'creaking'
p2227
aS'insinuating'
p2228
aS'tease'
p2229
aS'snagging'
p2230
aS'smear'
p2231
aS'jeer'
p2232
aS'nonexistent'
p2233
aS'stereotypically'
p2234
aS'demonic'
p2235
aS'usurper'
p2236
aS'restlessness'
p2237
aS'knave'
p2238
aS'discrimination'
p2239
aS'threesome'
p2240
aS'assassin'
p2241
aS'nastily'
p2242
aS'fallacy'
p2243
aS'annoyances'
p2244
aS'perturbed'
p2245
aS'dissocial'
p2246
aS'utterly'
p2247
aS'burning'
p2248
aS'curses'
p2249
aS'acridly'
p2250
aS'unnerved'
p2251
aS'cursed'
p2252
aS'inculcate'
p2253
aS'lame-duck'
p2254
aS'multi-polarization'
p2255
aS'deceivers'
p2256
aS'annoys'
p2257
aS'subservience'
p2258
aS'overshadow'
p2259
aS'ridicules'
p2260
aS'calamities'
p2261
aS'naughty'
p2262
aS'strictly'
p2263
aS'tramp'
p2264
aS'totalitarian'
p2265
aS'brute'
p2266
aS'lugubrious'
p2267
aS'madder'
p2268
aS'unreliability'
p2269
aS'mindless'
p2270
aS'racist'
p2271
aS'futile'
p2272
aS'dislocated'
p2273
aS'craftly'
p2274
aS'hysterical'
p2275
aS'strict'
p2276
aS'bull----'
p2277
aS'overpaid'
p2278
aS'gibe'
p2279
aS'mischief'
p2280
aS'drains'
p2281
aS'shamelessly'
p2282
aS'worrisome'
p2283
aS'buggy'
p2284
aS'delayed'
p2285
aS'shroud'
p2286
aS'manipulative'
p2287
aS'recoil'
p2288
aS'irrationals'
p2289
aS';;;;;;;;;;;;;;;;;;;;;;;;;;;;;;;;;;;;;;;;;;;;;;;;;;;;;;;;;;;;;;;;;;;;;;;;;;;;;;'
p2290
aS'impedance'
p2291
aS'warped'
p2292
aS'condemnable'
p2293
aS'irreversible'
p2294
aS'election-rigger'
p2295
aS'belated'
p2296
aS'abused'
p2297
aS'darken'
p2298
aS'harangue'
p2299
aS'annihilate'
p2300
aS'rage'
p2301
aS'fabricate'
p2302
aS'grudging'
p2303
aS'extermination'
p2304
aS'poison'
p2305
aS'flirt'
p2306
aS'sadness'
p2307
aS'dirty'
p2308
aS'abuses'
p2309
aS'grouch'
p2310
aS'irreconcilable'
p2311
aS'gibberish'
p2312
aS'deadlock'
p2313
aS'creeping'
p2314
aS'rust'
p2315
aS'dirts'
p2316
aS'ruffian'
p2317
aS'inflict'
p2318
aS'fright'
p2319
aS'stiflingly'
p2320
aS'exhausted'
p2321
aS'bleakly'
p2322
aS'stealing'
p2323
aS'cringed'
p2324
aS'prideful'
p2325
aS'fallaciousness'
p2326
aS'accusingly'
p2327
aS'spendy'
p2328
aS'creak'
p2329
aS'deterrent'
p2330
aS'casualty'
p2331
aS'incorrect'
p2332
aS'abyss'
p2333
aS'onerous'
p2334
aS'exasperate'
p2335
aS'hotbeds'
p2336
aS'pertinaciously'
p2337
aS'idiot'
p2338
aS'floored'
p2339
aS'abolish'
p2340
aS'tempest'
p2341
aS'trample'
p2342
aS'unaccustomed'
p2343
aS'inteferes'
p2344
aS'heathen'
p2345
aS'friggin'
p2346
aS'sucked'
p2347
aS'incomprehensible'
p2348
aS'dismayed'
p2349
aS'misleadingly'
p2350
aS'disgraceful'
p2351
aS'unproving'
p2352
aS'deviation'
p2353
aS'brash'
p2354
aS'authoritarian'
p2355
aS'conspiracies'
p2356
aS'expropriation'
p2357
aS'manipulate'
p2358
aS'desolation'
p2359
aS'damnably'
p2360
aS'dented'
p2361
aS'despoil'
p2362
aS'damnable'
p2363
aS'overreach'
p2364
aS'whining'
p2365
aS'midget'
p2366
aS'wounds'
p2367
aS'superstitious'
p2368
aS'worthlessly'
p2369
aS'sensationalize'
p2370
aS'imminently'
p2371
aS'unresponsive'
p2372
aS'inexcusably'
p2373
aS'pitifully'
p2374
aS'disdained'
p2375
aS'menace'
p2376
aS'consternation'
p2377
aS'touts'
p2378
aS'snagged'
p2379
aS'irksomenesses'
p2380
aS'uglier'
p2381
aS'apathy'
p2382
aS'indiscriminating'
p2383
aS'villianously'
p2384
aS'judders'
p2385
aS'disagreeing'
p2386
aS'refutation'
p2387
aS'fraudulent'
p2388
aS'forswear'
p2389
aS'oversimplify'
p2390
aS'mourner'
p2391
aS'prejudicial'
p2392
aS'traitorously'
p2393
aS'banishment'
p2394
aS'wedge'
p2395
aS'crumpled'
p2396
aS'diss'
p2397
aS'liar'
p2398
aS'vile'
p2399
aS'beware'
p2400
aS'allergy'
p2401
aS'scandel'
p2402
aS'importune'
p2403
aS'expulse'
p2404
aS'pique'
p2405
aS'goofy'
p2406
aS'antagonize'
p2407
aS'crumples'
p2408
aS'unmoved'
p2409
aS'messy'
p2410
aS'revoke'
p2411
aS'oppositions'
p2412
aS'defamations'
p2413
aS'improperly'
p2414
aS'dreadful'
p2415
aS'overturn'
p2416
aS'catastrophe'
p2417
aS'fastuous'
p2418
aS'ignorant'
p2419
aS'irrelevant'
p2420
aS'subjected'
p2421
aS'extraneous'
p2422
aS'revengeful'
p2423
aS'indecently'
p2424
aS'hideous'
p2425
aS'degeneration'
p2426
aS'restrict'
p2427
aS'worse'
p2428
aS'equivocal'
p2429
aS'puzzled'
p2430
aS'infringement'
p2431
aS'discrepant'
p2432
aS'ruthlessly'
p2433
aS'facetious'
p2434
aS'fat'
p2435
aS'resistance'
p2436
aS'inflammed'
p2437
aS'rogue'
p2438
aS'volatility'
p2439
aS'rape'
p2440
aS'fall'
p2441
aS'awful'
p2442
aS'savagery'
p2443
aS'irksomeness'
p2444
aS'maladjusted'
p2445
aS'gainsay'
p2446
aS'remorsefully'
p2447
aS'ranting'
p2448
aS'irrecoverablenesses'
p2449
aS'deficient'
p2450
aS'ingratitude'
p2451
aS'disrepute'
p2452
aS'insufficiently'
p2453
aS'dodgey'
p2454
aS'intimidate'
p2455
aS'desertion'
p2456
aS'undone'
p2457
aS'liars'
p2458
aS'damper'
p2459
aS'throbbing'
p2460
aS'conflicted'
p2461
aS'unsteadiness'
p2462
aS'stigmatize'
p2463
aS'repulsiveness'
p2464
aS'dizzingly'
p2465
aS'lechery'
p2466
aS'enfeeble'
p2467
aS'pandemonium'
p2468
aS'enjoin'
p2469
aS'bungler'
p2470
aS'misrepresent'
p2471
aS'destitute'
p2472
aS'hamper'
p2473
aS'bully'
p2474
aS'lone'
p2475
aS'sue'
p2476
aS'unuseable'
p2477
aS'darkness'
p2478
aS'short-lived'
p2479
aS'disintegration'
p2480
aS'poisonous'
p2481
aS'whimper'
p2482
aS'rascal'
p2483
aS'lurch'
p2484
aS'straggle'
p2485
aS'exasperation'
p2486
aS'crush'
p2487
aS'faltered'
p2488
aS'blindside'
p2489
aS'undecided'
p2490
aS'travesty'
p2491
aS'falsify'
p2492
aS'violently'
p2493
aS'turmoil'
p2494
aS'disillusions'
p2495
aS'passiveness'
p2496
aS'loose'
p2497
aS'overstatement'
p2498
aS'indecision'
p2499
aS'mendacious'
p2500
aS'panicked'
p2501
aS'lack'
p2502
aS'deceitfully'
p2503
aS'disastrous'
p2504
aS'hopelessness'
p2505
aS'tiringly'
p2506
aS'grudges'
p2507
aS'buzzing'
p2508
aS'tragedy'
p2509
aS'mudslinging'
p2510
aS'horrifies'
p2511
aS'stupor'
p2512
aS'creeps'
p2513
aS'unproven'
p2514
aS'enmity'
p2515
aS'villian'
p2516
aS'losses'
p2517
aS'slave'
p2518
aS'brutal'
p2519
aS'over-hyped'
p2520
aS'infringe'
p2521
aS'snappish'
p2522
aS'horrified'
p2523
aS'stiffness'
p2524
aS'misery'
p2525
aS'unproves'
p2526
aS'skepticism'
p2527
aS'hoodium'
p2528
aS'monotony'
p2529
aS'invalidate'
p2530
aS'calumniously'
p2531
aS'madly'
p2532
aS'panders'
p2533
aS'cowardly'
p2534
aS'impiety'
p2535
aS'fatuous'
p2536
aS'indolent'
p2537
aS'conspiratorial'
p2538
aS'glitch'
p2539
aS'chunky'
p2540
aS'fearfully'
p2541
aS'fatuously'
p2542
aS'snub'
p2543
aS'lewdness'
p2544
aS'decrement'
p2545
aS'coercion'
p2546
aS'inadequately'
p2547
aS'drippy'
p2548
aS'unthinkably'
p2549
aS'flaws'
p2550
aS'injure'
p2551
aS'faint'
p2552
aS'tyrannically'
p2553
aS'irritate'
p2554
aS'unpleasant'
p2555
aS'alarmingly'
p2556
aS'unjustifiably'
p2557
aS'mysterious'
p2558
aS'furor'
p2559
aS'fret'
p2560
aS'unthinkable'
p2561
aS'hegemony'
p2562
aS'terrorize'
p2563
aS'flaw'
p2564
aS'delaying'
p2565
aS'erode'
p2566
aS'bumped'
p2567
aS'mire'
p2568
aS'regrettable'
p2569
aS'spoils'
p2570
aS'dissonantly'
p2571
aS'drips'
p2572
aS'spoon-fed'
p2573
aS'excuse'
p2574
aS'apprehensions'
p2575
aS'grisly'
p2576
aS'dubious'
p2577
aS'broke'
p2578
aS'amputate'
p2579
aS'disfavor'
p2580
aS'objections'
p2581
aS'doom'
p2582
aS'pretense'
p2583
aS'flak'
p2584
aS'domineer'
p2585
aS'lascivious'
p2586
aS'discordance'
p2587
aS'disquietude'
p2588
aS'sucky'
p2589
aS'anxieties'
p2590
aS'unrealistic'
p2591
aS'misbecoming'
p2592
aS'imprecisely'
p2593
aS'sucks'
p2594
aS'long-winded'
p2595
aS'insatiable'
p2596
aS'frustratingly'
p2597
aS'entrapment'
p2598
aS'inconsequently'
p2599
aS'sunk'
p2600
aS'taut'
p2601
aS'dazed'
p2602
aS'smelt'
p2603
aS'scramble'
p2604
aS'stubborn'
p2605
aS'shark'
p2606
aS'stampede'
p2607
aS'atrocious'
p2608
aS'challenging'
p2609
aS'life-threatening'
p2610
aS'overstates'
p2611
aS'gravely'
p2612
aS'onslaught'
p2613
aS'dilly-dally'
p2614
aS'conspire'
p2615
aS'boycott'
p2616
aS'wrip'
p2617
aS'coerce'
p2618
aS'; This file contains a list of NEGATIVE opinion words (or sentiment words).'
p2619
aS'dubiously'
p2620
aS'reproachful'
p2621
aS'despot'
p2622
aS'fundamentalism'
p2623
aS'disliked'
p2624
aS'allege'
p2625
aS'interferes'
p2626
aS'condemn'
p2627
aS'insignificantly'
p2628
aS'scandals'
p2629
aS'distastefully'
p2630
aS'obnoxious'
p2631
aS'messing'
p2632
aS'tired'
p2633
aS'disconsolate'
p2634
aS'desperation'
p2635
aS'acrimony'
p2636
aS'breaking'
p2637
aS'hardhearted'
p2638
aS'goad'
p2639
aS'regression'
p2640
aS'hampered'
p2641
aS'overbalance'
p2642
aS'heck'
p2643
aS'weed'
p2644
aS'reject'
p2645
aS'odder'
p2646
aS'thirst'
p2647
aS'wiles'
p2648
aS'perversely'
p2649
aS';    http://www.cs.uic.edu/~liub/FBS/sentiment-analysis.html'
p2650
aS'rude'
p2651
aS'acerbate'
p2652
aS'inflationary'
p2653
aS'disgraced'
p2654
aS'malcontented'
p2655
aS'weaknesses'
p2656
aS'preoccupy'
p2657
aS'idiocy'
p2658
aS'roadblocks'
p2659
aS'disable'
p2660
aS'startlingly'
p2661
aS'numb'
p2662
aS'mendacity'
p2663
aS'gasp'
p2664
aS'inconceivable'
p2665
aS'sarcastically'
p2666
aS'tricky'
p2667
aS'bleak'
p2668
aS'diabolically'
p2669
aS'contrived'
p2670
aS'debility'
p2671
aS'criticize'
p2672
aS'deluge'
p2673
aS'crowded'
p2674
aS'frictions'
p2675
aS'ripoff'
p2676
aS'shady'
p2677
aS'sickeningly'
p2678
aS'bugs'
p2679
aS'dispensable'
p2680
aS'groundless'
p2681
aS'bashing'
p2682
aS'gloomy'
p2683
aS'dread'
p2684
aS'deterioration'
p2685
aS'retaliate'
p2686
aS'admonishment'
p2687
aS'impermissible'
p2688
aS'cruelties'
p2689
aS'wreaks'
p2690
aS'crafty'
p2691
aS'rue'
p2692
aS'egregiously'
p2693
aS'traped'
p2694
aS'uneventful'
p2695
aS'outrages'
p2696
aS'displease'
p2697
aS'incessantly'
p2698
aS'oblique'
p2699
aS'annoyingly'
p2700
aS'setback'
p2701
aS'deploring'
p2702
aS'disabled'
p2703
aS'outraged'
p2704
aS'dawdle'
p2705
aS'dizzing'
p2706
aS'stupified'
p2707
aS'sugarcoated'
p2708
aS'dunce'
p2709
aS'ruffle'
p2710
aS'suffer'
p2711
aS'prevaricate'
p2712
aS'arrogant'
p2713
aS'irreformable'
p2714
aS'disagreed'
p2715
aS'repugnantly'
p2716
aS'emaciated'
p2717
aS'sugar-coated'
p2718
aS'susceptible'
p2719
aS'reluctance'
p2720
aS'blurring'
p2721
aS'famished'
p2722
aS'symptoms'
p2723
aS'outmoded'
p2724
aS'absence'
p2725
aS'misunderstandings'
p2726
aS'disagrees'
p2727
aS'mistakenly'
p2728
aS'clamor'
p2729
aS'bereft'
p2730
aS'backache'
p2731
aS'goof'
p2732
aS'hurting'
p2733
aS'egotistically'
p2734
aS'disrespectful'
p2735
aS'job-killing'
p2736
aS'motley'
p2737
aS'goon'
p2738
aS'torturous'
p2739
aS'tumbles'
p2740
aS'impossible'
p2741
aS'incitement'
p2742
aS'prejudices'
p2743
aS'undissolved'
p2744
aS'imperil'
p2745
aS'vomit'
p2746
aS'capriciousness'
p2747
aS'belittle'
p2748
aS'misuse'
p2749
aS'unauthentic'
p2750
aS'irrationality'
p2751
aS'complain'
p2752
aS'ruthlessness'
p2753
aS'mystery'
p2754
aS'desperately'
p2755
aS'stodgy'
p2756
aS'rant'
p2757
aS'trashy'
p2758
aS'outrage'
p2759
aS'hallucination'
p2760
aS'evade'
p2761
aS'scarcely'
p2762
aS'incoherence'
p2763
aS'debacle'
p2764
aS'overacted'
p2765
aS'pan'
p2766
aS'boisterous'
p2767
aS'inordinately'
p2768
aS'shocking'
p2769
aS'harboring'
p2770
aS'intolerable'
p2771
aS'disorganized'
p2772
aS'predatory'
p2773
aS'breakdown'
p2774
aS'harm'
p2775
aS'steeply'
p2776
aS'restless'
p2777
aS'needless'
p2778
aS'niggle'
p2779
aS'exasperated'
p2780
aS'bickering'
p2781
aS'exorbitant'
p2782
aS'muscle-flexing'
p2783
aS'backbiting'
p2784
aS'deride'
p2785
aS'fist'
p2786
aS'dubitable'
p2787
aS'hardliner'
p2788
aS'inflated'
p2789
aS'absurdity'
p2790
aS'anarchy'
p2791
aS'repressive'
p2792
aS'embattled'
p2793
aS'missed'
p2794
aS'tenderness'
p2795
aS'presumptuous'
p2796
aS'miss'
p2797
aS'childish'
p2798
aS'disadvantages'
p2799
aS'disquiet'
p2800
aS'discouraging'
p2801
aS'bellicose'
p2802
aS'disbeliever'
p2803
aS'misses'
p2804
aS'dejectedly'
p2805
aS'pillage'
p2806
aS'avenge'
p2807
aS'blundering'
p2808
aS'snappishly'
p2809
aS'issue'
p2810
aS'impudence'
p2811
aS'tiring'
p2812
aS'unsavory'
p2813
aS'scandalized'
p2814
aS'nervously'
p2815
aS'disobedience'
p2816
aS'dictatorial'
p2817
aS'laughably'
p2818
aS'dirt'
p2819
aS'stridently'
p2820
aS'bedlam'
p2821
aS'misstatement'
p2822
aS'overawe'
p2823
aS'paucity'
p2824
aS'difficulty'
p2825
aS'quarrellous'
p2826
aS'viciously'
p2827
aS'hothead'
p2828
aS'dire'
p2829
aS'clique'
p2830
aS'desiccate'
p2831
aS'laughable'
p2832
aS'hapless'
p2833
aS'reproach'
p2834
aS'bash'
p2835
aS'scathing'
p2836
aS'blister'
p2837
aS'devilishly'
p2838
aS'unresolved'
p2839
aS'omit'
p2840
aS'over-awe'
p2841
aS'brazenly'
p2842
aS'sicken'
p2843
aS'audacity'
p2844
aS'prejudice'
p2845
aS'bragger'
p2846
aS'threat'
p2847
aS'cataclysmically'
p2848
aS'avariciously'
p2849
aS'neglected'
p2850
aS'apocalypse'
p2851
aS'fallen'
p2852
aS'ding'
p2853
aS'dissatisfy'
p2854
aS'unhealthy'
p2855
aS'perturb'
p2856
aS'god-awful'
p2857
aS'belligerent'
p2858
aS'bullies'
p2859
aS'obsessiveness'
p2860
aS'brutally'
p2861
aS'barbarian'
p2862
aS'fierce'
p2863
aS'scandalously'
p2864
aS'defects'
p2865
aS'craps'
p2866
aS'hatefulness'
p2867
aS'bland'
p2868
aS'slower'
p2869
aS'wrest'
p2870
aS'mist'
p2871
aS'jabber'
p2872
aS'prohibitively'
p2873
aS'precariously'
p2874
aS'regret'
p2875
aS'moan'
p2876
aS'unexplained'
p2877
aS'symptom'
p2878
aS'picket'
p2879
aS'unfavorable'
p2880
aS'ostracize'
p2881
aS'patronize'
p2882
aS'mercilessly'
p2883
aS'swipe'
p2884
aS'2-faces'
p2885
aS'fatcats'
p2886
aS'hangs'
p2887
aS'doomsday'
p2888
aS'starkly'
p2889
aS'flimsy'
p2890
aS'zealot'
p2891
aS'unimaginably'
p2892
aS'pains'
p2893
aS'2-faced'
p2894
aS'uncomfortably'
p2895
aS'merciless'
p2896
aS'headache'
p2897
aS'sunder'
p2898
aS'repetitive'
p2899
aS'imperfect'
p2900
aS'uproarious'
p2901
aS'discombobulate'
p2902
aS'wildly'
p2903
aS'retard'
p2904
aS'fatique'
p2905
aS'obsolete'
p2906
aS'gimmicking'
p2907
aS'indecisively'
p2908
aS'depressingly'
p2909
aS'boredom'
p2910
aS'gruesome'
p2911
aS'stifle'
p2912
aS'importunate'
p2913
aS'carnage'
p2914
aS'raping'
p2915
aS'flabbergasted'
p2916
aS'inadvisably'
p2917
aS'commiserate'
p2918
aS'lament'
p2919
aS'miseries'
p2920
aS'intermittent'
p2921
aS'impersonal'
p2922
aS'squeaks'
p2923
aS'annihilation'
p2924
aS'breakups'
p2925
aS'stall'
p2926
aS'risks'
p2927
aS'insulted'
p2928
aS'battering'
p2929
aS'stale'
p2930
aS'abysmally'
p2931
aS'risky'
p2932
aS'unrelenting'
p2933
aS'phobic'
p2934
aS'phobia'
p2935
aS'scarcity'
p2936
aS'stains'
p2937
aS';       See the paper below:'
p2938
aS'suspicious'
p2939
aS'overstate'
p2940
aS'defect'
p2941
aS'cuplrit'
p2942
aS'unjustifiable'
p2943
aS'randomly'
p2944
aS'forgetfully'
p2945
aS'murder'
p2946
aS'servitude'
p2947
aS'engulf'
p2948
aS'unspeakablely'
p2949
aS'disgustful'
p2950
aS'douchebags'
p2951
aS'cumbersome'
p2952
aS'mawkish'
p2953
aS'vulnerable'
p2954
aS'insufferably'
p2955
aS'lie'
p2956
aS'hopelessly'
p2957
aS'offender'
p2958
aS'villianous'
p2959
aS'evasion'
p2960
aS'refute'
p2961
aS'tarnish'
p2962
aS'last-ditch'
p2963
aS'cave'
p2964
aS'commotion'
p2965
aS'severe'
p2966
aS'lackadaisical'
p2967
aS'freakishly'
p2968
aS'flares'
p2969
aS'upbraid'
p2970
aS'useless'
p2971
aS'frail'
p2972
aS'aggravating'
p2973
aS'hell-bent'
p2974
aS'insufferable'
p2975
aS'instigator'
p2976
aS'back-logged'
p2977
aS'ludicrously'
p2978
aS'inconvenience'
p2979
aS'disconcerted'
p2980
aS'plunder'
p2981
aS'miserly'
p2982
aS'hothouse'
p2983
aS'diametrically'
p2984
aS'unpopular'
p2985
aS'war-like'
p2986
aS'nitpicking'
p2987
aS'offensively'
p2988
aS'unequal'
p2989
aS'corrupts'
p2990
aS'prickle'
p2991
aS'smoulder'
p2992
aS'slumpping'
p2993
aS'unreasonable'
p2994
aS'faithless'
p2995
aS'wimpy'
p2996
aS'pitilessly'
p2997
aS'cramped'
p2998
aS'draconian'
p2999
aS'hindrance'
p3000
aS'barren'
p3001
aS'fainthearted'
p3002
aS'deceitfulness'
p3003
aS'scuffs'
p3004
aS'dragged'
p3005
aS'lying'
p3006
aS'dissemble'
p3007
aS'fatalistic'
p3008
aS'smudges'
p3009
aS'despise'
p3010
aS'trickery'
p3011
aS'humid'
p3012
aS'languid'
p3013
aS'acerbic'
p3014
aS'exterminate'
p3015
aS'agonize'
p3016
aS'swelling'
p3017
aS'flicker'
p3018
aS'quarrels'
p3019
aS'aghast'
p3020
aS'indecorum'
p3021
aS'martyrdom-seeking'
p3022
aS'inflexible'
p3023
aS'clog'
p3024
aS'downbeat'
p3025
aS'malignant'
p3026
aS'felon'
p3027
aS'underdog'
p3028
aS'overwhelmed'
p3029
aS'negligence'
p3030
aS'distressing'
p3031
aS'aggravate'
p3032
aS'ho-hum'
p3033
aS'delinquent'
p3034
aS'torturously'
p3035
aS'paranoid'
p3036
aS'nervous'
p3037
aS'ruin'
p3038
aS'discord'
p3039
aS'grotesque'
p3040
aS'paranoia'
p3041
aS'slaughtered'
p3042
aS'polemize'
p3043
aS'penalty'
p3044
aS'failed'
p3045
aS'idiots'
p3046
aS'spitefully'
p3047
aS'shamefulness'
p3048
aS'convoluted'
p3049
aS'eruptions'
p3050
aS'credulous'
p3051
aS'flighty'
p3052
aS'hardened'
p3053
aS'harmed'
p3054
aS'indifference'
p3055
aS'resurgent'
p3056
aS'repulsing'
p3057
aS'intractable'
p3058
aS'devastate'
p3059
aS'forgetful'
p3060
aS'ungrateful'
p3061
aS'babble'
p3062
aS'smell'
p3063
aS'resent'
p3064
aS'avarice'
p3065
aS'cheapen'
p3066
aS'farcical-yet-provocative'
p3067
aS'time-consuming'
p3068
aS'nagging'
p3069
aS'stunt'
p3070
aS'frightening'
p3071
aS'shemale'
p3072
aS'distraction'
p3073
aS'enemy'
p3074
aS'terror-genic'
p3075
aS'outbursts'
p3076
aS'chasten'
p3077
aS'contagious'
p3078
aS'pernicious'
p3079
aS'lividly'
p3080
aS'throttle'
p3081
aS'cry'
p3082
aS'swelled'
p3083
aS'snobbish'
p3084
aS'mistakes'
p3085
aS'audiciously'
p3086
aS'screech'
p3087
aS'unusably'
p3088
aS'hype'
p3089
aS'kill'
p3090
aS'obscure'
p3091
aS'cringe'
p3092
aS'bloated'
p3093
aS'insensible'
p3094
aS'bulky'
p3095
aS'cramp'
p3096
aS'disparagingly'
p3097
aS'stump'
p3098
aS'disapproving'
p3099
aS'mischievously'
p3100
aS'overwhelm'
p3101
aS'declines'
p3102
aS'procrastinates'
p3103
aS'grumpiest'
p3104
aS'unsatisfactory'
p3105
aS'sidetracked'
p3106
aS'dumb'
p3107
aS'irredeemable'
p3108
aS'inefficacy'
p3109
aS'perverted'
p3110
aS'sh*t'
p3111
aS'petrify'
p3112
aS'vengeance'
p3113
aS'outrageous'
p3114
aS'woeful'
p3115
aS'ill-treatment'
p3116
aS'threats'
p3117
aS'insidiously'
p3118
aS'horrid'
p3119
aS'unsettling'
p3120
aS'blurt'
p3121
aS'forlorn'
p3122
aS'inefficacious'
p3123
aS'hobble'
p3124
aS'rejecting'
p3125
aS'blurs'
p3126
aS'back-wood'
p3127
aS'degrading'
p3128
aS'smuttier'
p3129
aS'jaundiced'
p3130
aS'abrade'
p3131
aS'incompatibility'
p3132
aS'distraught'
p3133
aS'burned'
p3134
aS'viciousness'
p3135
aS'corruption'
p3136
aS'stagnation'
p3137
aS'peeled'
p3138
aS'hardship'
p3139
aS'notoriously'
p3140
aS'dullard'
p3141
aS'oppress'
p3142
aS'figurehead'
p3143
aS'betrayer'
p3144
aS'disallow'
p3145
aS'incommensurate'
p3146
aS'counter-productive'
p3147
aS'loathly'
p3148
aS'aggrieve'
p3149
aS'woe'
p3150
aS'invisible'
p3151
aS'regress'
p3152
aS'egotism'
p3153
aS'abruptly'
p3154
aS'defunct'
p3155
aS'ignominy'
p3156
aS'hesitant'
p3157
aS'perplexed'
p3158
aS'carelessness'
p3159
aS'offending'
p3160
aS'harpy'
p3161
aS'sty'
p3162
aS'doggedly'
p3163
aS'sceptical'
p3164
aS'scams'
p3165
aS'retarded'
p3166
aS'poverty'
p3167
aS'disgustfully'
p3168
aS'shortsighted'
p3169
aS'sink'
p3170
aS'sloth'
p3171
aS'distress'
p3172
aS'drunk'
p3173
aS'crippled'
p3174
aS'uncivil'
p3175
aS'smother'
p3176
aS'asininely'
p3177
aS'improper'
p3178
aS'panicking'
p3179
aS'regretfully'
p3180
aS'mockingly'
p3181
aS'unsuccessful'
p3182
aS'turbulent'
p3183
aS'self-coup'
p3184
aS'acrid'
p3185
aS'distrusting'
p3186
aS'expensive'
p3187
aS'headaches'
p3188
aS'decline'
p3189
aS'complication'
p3190
aS'devil'
p3191
aS'filth'
p3192
aS'frets'
p3193
aS'hoax'
p3194
aS'unreliable'
p3195
aS'overlook'
p3196
aS'appall'
p3197
aS'inconsequent'
p3198
aS'imperfections'
p3199
aS'incompatability'
p3200
aS'acrimoniously'
p3201
aS'damn'
p3202
aS'coarse'
p3203
aS'threaten'
p3204
aS'intrusive'
p3205
aS'screwed-up'
p3206
aS'troublemaker'
p3207
aS'unleash'
p3208
aS'derisiveness'
p3209
aS'ineptitude'
p3210
aS'dropout'
p3211
aS'grating'
p3212
aS'imprudence'
p3213
aS'cruelty'
p3214
aS'deter'
p3215
aS'pricey'
p3216
aS'decadent'
p3217
aS'suicide'
p3218
aS'laughingstock'
p3219
aS'fretful'
p3220
aS'chatter'
p3221
aS'struck'
p3222
aS'inclement'
p3223
aS'stolen'
p3224
aS'overplay'
p3225
aS'conspirator'
p3226
aS'frozen'
p3227
aS'fleed'
p3228
aS'grainy'
p3229
aS'corrode'
p3230
aS'distressed'
p3231
aS'succumb'
p3232
aS'error'
p3233
aS'endanger'
p3234
aS'loot'
p3235
aS'flees'
p3236
aS'fleer'
p3237
aS'uncompromising'
p3238
aS'virulently'
p3239
aS'shoddy'
p3240
aS'costly'
p3241
aS'guilty'
p3242
aS'imperialist'
p3243
aS'drawbacks'
p3244
aS'demon'
p3245
aS'rip'
p3246
aS'rancor'
p3247
aS'confound'
p3248
aS'gall'
p3249
aS'pricier'
p3250
aS'debaser'
p3251
aS'frantic'
p3252
aS'stubbornly'
p3253
aS'tin-y'
p3254
aS'enervate'
p3255
aS'anguish'
p3256
aS'fearsome'
p3257
aS'wail'
p3258
aS'ruts'
p3259
aS'aches'
p3260
aS'lengthy'
p3261
aS'facetiously'
p3262
aS'spookiest'
p3263
aS'radicalization'
p3264
aS'achey'
p3265
aS'dishonor'
p3266
aS'fallacies'
p3267
aS'butcher'
p3268
aS'vexingly'
p3269
aS'testy'
p3270
aS'discredit'
p3271
aS'ineffective'
p3272
aS'spade'
p3273
aS'ached'
p3274
aS'ugliness'
p3275
aS'itchy'
p3276
aS'impious'
p3277
aS'conflict'
p3278
aS'sham'
p3279
aS'misguidance'
p3280
aS'contravene'
p3281
aS'covetous'
p3282
aS'displeased'
p3283
aS'fatty'
p3284
aS'itch'
p3285
aS'overweight'
p3286
aS'censure'
p3287
aS'jealously'
p3288
aS'impede'
p3289
aS'rabid'
p3290
aS'unwillingly'
p3291
aS'ill-fated'
p3292
aS'haunting'
p3293
aS'uneasily'
p3294
aS'livid'
p3295
aS'timid'
p3296
aS'fabrication'
p3297
aS'infamous'
p3298
aS'flirty'
p3299
aS'anti-israeli'
p3300
aS'infiltrator'
p3301
aS'whores'
p3302
aS'picky'
p3303
aS'craven'
p3304
aS'grind'
p3305
aS'struggles'
p3306
aS'unlicensed'
p3307
aS'snarl'
p3308
aS'scummy'
p3309
aS'uproariously'
p3310
aS'toil'
p3311
aS'recant'
p3312
aS'appalled'
p3313
aS'grossly'
p3314
aS'grievance'
p3315
aS'discourteously'
p3316
aS'distains'
p3317
aS'pillory'
p3318
aS'commotions'
p3319
aS'slowly'
p3320
aS'irritably'
p3321
aS'ignoble'
p3322
aS'devastatingly'
p3323
aS'distracting'
p3324
aS'rumbling'
p3325
aS'inactive'
p3326
aS'cocky'
p3327
aS'irritable'
p3328
aS'insolent'
p3329
aS'vengefully'
p3330
aS'dishonesty'
p3331
aS'misapprehend'
p3332
aS'superficial'
p3333
aS'implicate'
p3334
aS'illusions'
p3335
aS'jeopardize'
p3336
aS'botch'
p3337
aS'dastard'
p3338
aS'hated'
p3339
aS'decayed'
p3340
aS'miscreant'
p3341
aS'irritant'
p3342
aS'tormented'
p3343
aS'impoverished'
p3344
aS'limp'
p3345
aS'frustrate'
p3346
aS'hater'
p3347
aS'dirtbag'
p3348
aS'complaint'
p3349
aS'overthrows'
p3350
aS'complains'
p3351
aS'emergency'
p3352
aS'discriminatory'
p3353
aS'displace'
p3354
aS'scoldingly'
p3355
aS'suffering'
p3356
aS'cataclysm'
p3357
aS'bloody'
p3358
aS'indiscernible'
p3359
aS'smudging'
p3360
aS'foulness'
p3361
aS'irretrievable'
p3362
aS'blemish'
p3363
aS'miff'
p3364
aS'immorally'
p3365
aS'confront'
p3366
aS'maltreatment'
p3367
aS'stagnate'
p3368
aS'redundancy'
p3369
aS'mistrustfully'
p3370
aS'strife'
p3371
aS'ignore'
p3372
aS'uproar'
p3373
aS'aggravation'
p3374
aS'unstable'
p3375
aS'stutter'
p3376
aS'mediocrity'
p3377
aS'foolish'
p3378
aS'disorder'
p3379
aS'transgress'
p3380
aS'droops'
p3381
aS'scare'
p3382
aS'depravedly'
p3383
aS'fucking'
p3384
aS'embroil'
p3385
aS'disinclined'
p3386
aS'impeach'
p3387
aS'extremist'
p3388
aS'urgent'
p3389
aS'felonious'
p3390
aS'pathetically'
p3391
aS';    2. You will notice many misspelled words in the list. They are not'
p3392
aS'hard-line'
p3393
aS'selfishness'
p3394
aS'anti-american'
p3395
aS'bruising'
p3396
aS'pale'
p3397
aS'indigent'
p3398
aS'savage'
p3399
aS'nauseating'
p3400
aS'culprit'
p3401
aS'defamation'
p3402
aS'unaccessible'
p3403
aS'precarious'
p3404
aS'halfheartedly'
p3405
aS'ill-mannered'
p3406
aS'wrong'
p3407
aS'stew'
p3408
aS'bogus'
p3409
aS'misbecome'
p3410
aS'apathetic'
p3411
aS'dismally'
p3412
aS'inimical'
p3413
aS'two-faced'
p3414
aS'lowly'
p3415
aS'costlier'
p3416
aS'depressions'
p3417
aS'recourses'
p3418
aS'wayward'
p3419
aS'crooks'
p3420
aS'odor'
p3421
aS'lose'
p3422
aS'obscures'
p3423
aS'underlings'
p3424
aS'refused'
p3425
aS'zombie'
p3426
aS'restrictive'
p3427
aS'gracelessly'
p3428
aS'two-faces'
p3429
aS'bs'
p3430
aS'refuses'
p3431
aS'ache'
p3432
aS'; This file and the papers can all be downloaded from'
p3433
aS'obscured'
p3434
aS'peevishly'
p3435
aS'intense'
p3436
aS'rut'
p3437
aS'unconfirmed'
p3438
aS'uncompromisingly'
p3439
aS'hawkish'
p3440
aS'discontented'
p3441
aS'peeved'
p3442
aS'temper'
p3443
aS'tortuous'
p3444
aS'inhumanity'
p3445
aS'ordeal'
p3446
aS'virus'
p3447
aS'wrinkles'
p3448
aS'frightful'
p3449
aS'lifeless'
p3450
aS'ambush'
p3451
aS'inexperienced'
p3452
aS'illegal'
p3453
aS'wrinkled'
p3454
aS'hatred'
p3455
aS'bleeds'
p3456
aS'irked'
p3457
aS'paltry'
p3458
aS'misbehavior'
p3459
aS'garbage'
p3460
aS'corrupting'
p3461
aS'skulk'
p3462
aS'disturbingly'
p3463
aS'heedless'
p3464
aS'obstructed'
p3465
aS'dissatisfaction'
p3466
aS'harasses'
p3467
aS'inhospitable'
p3468
aS'obscenely'
p3469
aS'subversion'
p3470
aS'negation'
p3471
aS'ghosting'
p3472
aS'downhill'
p3473
aS'delusional'
p3474
aS'hysterics'
p3475
aS'criticisms'
p3476
aS'stumble'
p3477
aS'sad'
p3478
aS'infuriating'
p3479
aS'sneaky'
p3480
aS'unorthodox'
p3481
aS'bores'
p3482
aS'nauseates'
p3483
aS'chide'
p3484
aS'destains'
p3485
aS'incongruously'
p3486
aS'addicting'
p3487
aS'inexcusable'
p3488
aS'mishandle'
p3489
aS'oddities'
p3490
aS'calumny'
p3491
aS'bored'
p3492
aS'tingled'
p3493
aS'scared'
p3494
aS'errant'
p3495
aS'opponent'
p3496
aS'fragmented'
p3497
aS'forlornly'
p3498
aS'insensitivity'
p3499
aS'impudent'
p3500
aS'byzantine'
p3501
aS'treasonous'
p3502
aS'prohibitive'
p3503
aS'capriciously'
p3504
aS'disaffirm'
p3505
aS'archaic'
p3506
aS'scratched'
p3507
aS'tragically'
p3508
aS'forbidding'
p3509
aS'disliking'
p3510
aS'dull'
p3511
aS'flickers'
p3512
aS'mystify'
p3513
aS'discomfit'
p3514
aS'swagger'
p3515
aS'rejection'
p3516
aS'loopholes'
p3517
aS'blockage'
p3518
aS'hideousness'
p3519
aS'recessionary'
p3520
aS'slowwww'
p3521
aS'full-blown'
p3522
aS'halfhearted'
p3523
aS'slander'
p3524
aS'zealously'
p3525
aS'indefensible'
p3526
aS'aversion'
p3527
aS'fried'
p3528
aS'skittish'
p3529
aS'tank'
p3530
aS'repulse'
p3531
aS'curt'
p3532
aS'impudently'
p3533
aS'freak'
p3534
aS'oddity'
p3535
aS'castrated'
p3536
aS'nepotism'
p3537
aS'inexpertly'
p3538
aS'lackeys'
p3539
aS'unsafe'
p3540
aS'haunt'
p3541
aS'deprive'
p3542
aS'divisive'
p3543
aS'warning'
p3544
aS'seethe'
p3545
aS'shrivel'
p3546
aS'unwise'
p3547
aS'obtuse'
p3548
aS'dragging'
p3549
aS'denying'
p3550
aS'bombastic'
p3551
aS'disappoints'
p3552
aS'sullen'
p3553
aS'lemon'
p3554
aS'nag'
p3555
aS'sunken'
p3556
aS'tentative'
p3557
aS'evils'
p3558
aS'inequities'
p3559
aS'malicious'
p3560
aS'fears'
p3561
aS'futilely'
p3562
aS'stuffy'
p3563
aS'excuses'
p3564
aS'revulsive'
p3565
aS'seething'
p3566
aS'defrauding'
p3567
aS'irreplacible'
p3568
aS'dimmer'
p3569
aS'inglorious'
p3570
aS'assassinate'
p3571
aS'deviate'
p3572
aS'mock'
p3573
aS'raped'
p3574
aS'scapegoat'
p3575
aS'unsophisticated'
p3576
aS'accidental'
p3577
aS'besiege'
p3578
aS'pestilent'
p3579
aS'bravado'
p3580
aS'inflame'
p3581
aS'drag'
p3582
aS'self-criticism'
p3583
aS'suppression'
p3584
aS'detriment'
p3585
aS'unintelligile'
p3586
aS'mockery'
p3587
aS'wrinkle'
p3588
aS'desert'
p3589
aS'effrontery'
p3590
aS'unprove'
p3591
aS'hells'
p3592
aS'gloatingly'
p3593
aS'suffers'
p3594
aS'mindlessly'
p3595
aS'vice'
p3596
aS'downcast'
p3597
aS'appalling'
p3598
aS'impatient'
p3599
aS'perplex'
p3600
aS'inaccuracy'
p3601
aS'failures'
p3602
aS'doddering'
p3603
aS'imprecise'
p3604
aS'offensiveness'
p3605
aS'invidiousness'
p3606
aS'left-leaning'
p3607
aS'pervert'
p3608
aS'dogged'
p3609
aS'debaucher'
p3610
aS'unuseably'
p3611
aS'effigy'
p3612
aS'irretating'
p3613
aS'knotted'
p3614
aS';       mean that the sentence expresses a positive or negative opinion.'
p3615
aS'wrangle'
p3616
aS'posturing'
p3617
aS'ugh'
p3618
aS'hellion'
p3619
aS'misreading'
p3620
aS'amiss'
p3621
aS'discordant'
p3622
aS'overzealously'
p3623
aS'egomania'
p3624
aS'bumpping'
p3625
aS'unfaithful'
p3626
aS'issues'
p3627
aS'rigidity'
p3628
aS'deviously'
p3629
aS'concerned'
p3630
aS'blindingly'
p3631
aS'arrogance'
p3632
aS'loathsomely'
p3633
aS'corrosive'
p3634
aS'obstinate'
p3635
aS'rantingly'
p3636
aS'barbarically'
p3637
aS'breach'
p3638
aS'dislike'
p3639
aS'blandish'
p3640
aS'laggy'
p3641
aS'kaput'
p3642
aS'moot'
p3643
aS'nervousness'
p3644
aS'annoy'
p3645
aS'implausibly'
p3646
aS'murderous'
p3647
aS'moribund'
p3648
aS'punitive'
p3649
aS'confounding'
p3650
aS'drop-outs'
p3651
aS'disquieting'
p3652
aS'screwed'
p3653
aS'accuse'
p3654
aS'spook'
p3655
aS'implausible'
p3656
aS'subservient'
p3657
aS'discouragement'
p3658
aS'defamatory'
p3659
aS'undue'
p3660
aS'detested'
p3661
aS'unhappily'
p3662
aS'incoherent'
p3663
aS'excruciating'
p3664
aS'stiff'
p3665
aS'iniquity'
p3666
aS'shock'
p3667
aS'worthlessness'
p3668
aS'tenuously'
p3669
aS'damning'
p3670
aS'anxious'
p3671
aS'nauseatingly'
p3672
aS'catastrophes'
p3673
aS'exasperatingly'
p3674
aS'insubordinate'
p3675
aS'sedentary'
p3676
aS'choppy'
p3677
aS'insolence'
p3678
aS'pleas'
p3679
aS'limitations'
p3680
aS'pretend'
p3681
aS';       frequently in social media content.'
p3682
aS'disordered'
p3683
aS'abominably'
p3684
aS'recklessness'
p3685
aS'bleeding'
p3686
aS'chastise'
p3687
aS'frost'
p3688
aS'encroachment'
p3689
aS'sap'
p3690
aS'malice'
p3691
aS'mishap'
p3692
aS'unprofitable'
p3693
aS'crook'
p3694
aS'squabble'
p3695
aS'uncomfortable'
p3696
aS'overtaxed'
p3697
aS'unattractive'
p3698
aS'languor'
p3699
aS'abominable'
p3700
aS'odd'
p3701
aS'leakage'
p3702
aS'depression'
p3703
aS'recession'
p3704
aS'backaches'
p3705
aS'pittance'
p3706
aS'unavailable'
p3707
aS'impasse'
p3708
aS'concessions'
p3709
aS'bearish'
p3710
aS'exacerbate'
p3711
aS'sweaty'
p3712
aS'unhelpful'
p3713
aS'throb'
p3714
aS'rotten'
p3715
aS'aground'
p3716
aS'volatile'
p3717
aS'self-defeating'
p3718
aS'drags'
p3719
aS';'
p3720
aS'poky'
p3721
aS'raked'
p3722
aS'defiler'
p3723
aS'melancholy'
p3724
aS'denunciations'
p3725
aS'sneeringly'
p3726
aS'embroilment'
p3727
aS'upsetting'
p3728
aS'nitpick'
p3729
aS'repudiation'
p3730
aS'uncollectible'
p3731
aS'punch'
p3732
aS'misgiving'
p3733
aS'elimination'
p3734
aS'radicals'
p3735
aS'bowdlerize'
p3736
aS'licentiousness'
p3737
aS'conceited'
p3738
aS'insouciance'
p3739
aS'woefully'
p3740
aS'dissuade'
p3741
aS'discouragingly'
p3742
aS'polution'
p3743
aS'adulterate'
p3744
aS'forgetfulness'
p3745
aS'revile'
p3746
aS'indiscreetly'
p3747
aS'conceit'
p3748
aS'gullible'
p3749
aS'trivialize'
p3750
aS'inoperable'
p3751
aS'flakieness'
p3752
aS'audaciousness'
p3753
aS'contradiction'
p3754
aS'stubbornness'
p3755
aS'avaricious'
p3756
aS'imperfectly'
p3757
aS'wack'
p3758
aS'violators'
p3759
aS'acridness'
p3760
aS'abominate'
p3761
aS'dissolute'
p3762
aS'slogging'
p3763
aS'danger'
p3764
aS'forbid'
p3765
aS'disobey'
p3766
aS'confession'
p3767
aS'apprehensive'
p3768
aS'improbably'
p3769
aS'repugn'
p3770
aS'extravagance'
p3771
aS'weaker'
p3772
aS'bust'
p3773
aS'mortify'
p3774
aS'doubtfully'
p3775
aS'infest'
p3776
aS'gimmick'
p3777
aS'overzelous'
p3778
aS'inconveniently'
p3779
aS'cloud'
p3780
aS'absurdness'
p3781
aS'washed-out'
p3782
aS'dissonance'
p3783
aS'crap'
p3784
aS'waning'
p3785
aS'belittling'
p3786
aS'breakup'
p3787
aS'ineffectively'
p3788
aS'demoralizingly'
p3789
aS'slug'
p3790
aS'procrastinate'
p3791
aS'anti-semites'
p3792
aS'little-known'
p3793
aS'doubt'
p3794
aS'scariest'
p3795
aS'irrepressible'
p3796
aS'bitterly'
p3797
aS'noisy'
p3798
aS'maledict'
p3799
aS'disgustingly'
p3800
aS'betray'
p3801
aS'torture'
p3802
aS'dispirited'
p3803
aS'cackle'
p3804
aS'infamy'
p3805
aS'exasperating'
p3806
aS'fiend'
p3807
aS'malevolently'
p3808
aS'infection'
p3809
aS'fuck'
p3810
aS'insincerity'
p3811
aS'sore'
p3812
aS'insufficiency'
p3813
aS'deviousness'
p3814
aS'virulence'
p3815
aS'ashamed'
p3816
aS'tattered'
p3817
aS'eccentricity'
p3818
aS'enviously'
p3819
aS'inattentive'
p3820
aS'unforgiving'
p3821
aS'rivalry'
p3822
aS'wretch'
p3823
aS'inexpiable'
p3824
aS'conscons'
p3825
aS'unscrupulously'
p3826
aS'hurted'
p3827
aS'disingenuous'
p3828
aS'retreated'
p3829
aS'pout'
p3830
aS'jeers'
p3831
aS'lapse'
p3832
aS'critic'
p3833
aS'fractiously'
p3834
aS'feebleminded'
p3835
aS'gruff'
p3836
aS'monster'
p3837
aS'snobby'
p3838
aS'irreparable'
p3839
aS'languorously'
p3840
aS'aweful'
p3841
aS'ineffectualness'
p3842
aS'vileness'
p3843
aS'immoderate'
p3844
aS'proprietary'
p3845
aS'bent'
p3846
aS'overpayed'
p3847
aS'beleaguer'
p3848
aS'dripping'
p3849
aS'unhappiness'
p3850
aS'unorthodoxy'
p3851
aS'vicious'
p3852
aS'condescend'
p3853
aS'exorbitantly'
p3854
aS'antithetical'
p3855
aS'contempt'
p3856
aS'weaken'
p3857
aS'galls'
p3858
aS'clogs'
p3859
aS'scuff'
p3860
aS'defective'
p3861
aS'awkwardness'
p3862
aS'ambivalence'
p3863
aS'pertinacity'
p3864
aS'embarrassingly'
p3865
aS'sillily'
p3866
aS'madden'
p3867
aS'neurotic'
p3868
aS'delay'
p3869
aS'spurious'
p3870
aS'ignominious'
p3871
aS'calumnious'
p3872
aS'undersized'
p3873
aS'grudgingly'
p3874
aS'deplore'
p3875
aS'sin'
p3876
aS'occlude'
p3877
aS'cliched'
p3878
aS'abrasive'
p3879
aS'puppets'
p3880
aS'furiously'
p3881
aS'scornful'
p3882
aS'terrible'
p3883
aS'incompetence'
p3884
aS'detests'
p3885
aS'impenitent'
p3886
aS'hazard'
p3887
aS'bothered'
p3888
aS'discomfort'
p3889
aS'abuse'
p3890
aS'fatigue'
p3891
aS'unnaturally'
p3892
aS'insufficient'
p3893
aS'debasement'
p3894
aS'strut'
p3895
aS'flagrantly'
p3896
aS'syndrome'
p3897
aS'ambiguous'
p3898
aS'lecher'
p3899
aS'fatally'
p3900
aS'get-rich'
p3901
aS'arduous'
p3902
aS'zapped'
p3903
aS'redundant'
p3904
aS'incessant'
p3905
aS'waste'
p3906
aS'alienation'
p3907
aS'presumptuously'
p3908
aS'furious'
p3909
aS'disrespecting'
p3910
aS'irregularity'
p3911
aS'procrastination'
p3912
aS'untimely'
p3913
aS'violator'
p3914
aS'unlawful'
p3915
aS'poor'
p3916
aS'feeblely'
p3917
aS'languorous'
p3918
aS'contaminates'
p3919
aS'ricer'
p3920
aS'disarm'
p3921
aS'rebellious'
p3922
aS'doubtful'
p3923
aS'apathetically'
p3924
aS'beguile'
p3925
aS'tyrant'
p3926
aS'indignantly'
p3927
aS'protests'
p3928
aS'brittle'
p3929
aS'contaminated'
p3930
aS'dismaying'
p3931
aS'mordantly'
p3932
aS'brood'
p3933
aS'braggart'
p3934
aS'decay'
p3935
aS'goading'
p3936
aS'flawed'
p3937
aS'lech'
p3938
aS'imperfection'
p3939
aS'remorseless'
p3940
aS'blatant'
p3941
aS'corruptted'
p3942
aS'inconsistencies'
p3943
aS'choleric'
p3944
aS'criminal'
p3945
aS'demoralize'
p3946
aS'rip-off'
p3947
aS'cuss'
p3948
aS'crash'
p3949
aS'contention'
p3950
aS'grievances'
p3951
aS'non-confidence'
p3952
aS'muddle'
p3953
aS'denigrate'
p3954
aS'flout'
p3955
aS'negligent'
p3956
aS'heavy-handed'
p3957
aS'overbearing'
p3958
aS'bothering'
p3959
aS'seriousness'
p3960
aS'impaired'
p3961
aS'flee'
p3962
aS'diabolic'
p3963
aS'crass'
p3964
aS'slog'
p3965
aS'bewilderment'
p3966
aS'measly'
p3967
aS'spoon-feed'
p3968
aS'irks'
p3969
aS'estranged'
p3970
aS'immoral'
p3971
aS'sacrificed'
p3972
aS'irrelevance'
p3973
aS'devilment'
p3974
aS'sully'
p3975
aS'unpredictable'
p3976
aS'admonisher'
p3977
aS'sneering'
p3978
aS'pales'
p3979
aS'shortage'
p3980
aS'disregard'
p3981
aS'licentiously'
p3982
aS'mislike'
p3983
aS'erratic'
p3984
aS'flair'
p3985
aS'unjustly'
p3986
aS'thwart'
p3987
aS'tension'
p3988
aS'bump'
p3989
aS'tepid'
p3990
aS'stresses'
p3991
aS'outlaw'
p3992
aS'ungovernable'
p3993
aS'tanked'
p3994
aS'lesser-known'
p3995
aS'deficiency'
p3996
aS'regressive'
p3997
aS'mundane'
p3998
aS'castigate'
p3999
aS'irritation'
p4000
aS'jagged'
p4001
aS'banal'
p4002
aS'bluring'
p4003
aS'tainted'
p4004
aS'lukewarm'
p4005
aS'revoltingly'
p4006
aS';       Discovery and Data Mining (KDD-2004), Aug 22-25, 2004, Seattle,'
p4007
aS'confess'
p4008
aS'disarray'
p4009
aS'radical'
p4010
aS'chaos'
p4011
aS'insupportably'
p4012
aS'repress'
p4013
aS'so-cal'
p4014
aS'fascist'
p4015
aS'invective'
p4016
aS'wearisome'
p4017
aS'shambles'
p4018
aS'unprepared'
p4019
aS'disapointed'
p4020
aS'shortsightedness'
p4021
aS'obsessive'
p4022
aS'occluding'
p4023
aS'despairing'
p4024
aS'obsess'
p4025
aS'perish'
p4026
aS'stuttered'
p4027
aS'discontinuity'
p4028
aS'humiliating'
p4029
aS'inferiority'
p4030
aS';       2005, Chiba, Japan.'
p4031
aS'obnoxiously'
p4032
aS'unipolar'
p4033
aS'undocumented'
p4034
aS'displeasing'
p4035
aS'adulterier'
p4036
aS'dissenter'
p4037
aS'implode'
p4038
aS'conflicts'
p4039
aS'embarrass'
p4040
aS'delinquency'
p4041
aS'impulsive'
p4042
aS'bleed'
p4043
aS'shrew'
p4044
aS'scary'
p4045
aS'drowning'
p4046
aS'corrosion'
p4047
aS'dissatisfactory'
p4048
aS'inconceivably'
p4049
aS'fascism'
p4050
aS'peeve'
p4051
aS'deprived'
p4052
aS'compulsive'
p4053
aS'obstacle'
p4054
aS'throbs'
p4055
aS'irking'
p4056
aS'relentless'
p4057
aS'chilly'
p4058
aS'pigs'
p4059
aS'submissive'
p4060
aS'repulsed'
p4061
aS'barbarity'
p4062
aS'cunts'
p4063
aS'biting'
p4064
aS'grieving'
p4065
aS'sorrowful'
p4066
aS'lagged'
p4067
aS'insane'
p4068
aS'unwanted'
p4069
aS'obscurity'
p4070
aS'unskilled'
p4071
aS'unlawfulness'
p4072
aS'bleakness'
p4073
aS'confuse'
p4074
aS'sack'
p4075
aS'betrays'
p4076
aS'straining'
p4077
aS'listless'
p4078
aS'puppet'
p4079
aS'bitch'
p4080
aS'lagging'
p4081
aS'affliction'
p4082
aS'pauper'
p4083
aS'frazzle'
p4084
aS'deceptive'
p4085
aS'cynical'
p4086
aS'meltdown'
p4087
aS'unknown'
p4088
aS'vulgar'
p4089
aS'unspecified'
p4090
aS'lamentable'
p4091
aS'immovable'
p4092
aS'attack'
p4093
aS'lamentably'
p4094
aS'unbelievably'
p4095
aS'irredeemably'
p4096
aS'scant'
p4097
aS'belligerently'
p4098
aS'ferocity'
p4099
aS'terribleness'
p4100
aS'boil'
p4101
aS'disdain'
p4102
aS'malady'
p4103
aS'overpower'
p4104
aS'sloppily'
p4105
aS'unscrupulous'
p4106
aS'chagrin'
p4107
aS'punish'
p4108
aS'doomed'
p4109
aS'shallow'
p4110
aS'dreary'
p4111
aS'feint'
p4112
aS'depressing'
p4113
aS'deteriorating'
p4114
aS'skeptically'
p4115
aS'absent-minded'
p4116
aS'disrespectablity'
p4117
aS'fuzzy'
p4118
aS'overwhelming'
p4119
aS'apologist'
p4120
aS'vague'
p4121
aS'unappealing'
p4122
aS'bashed'
p4123
aS'slack'
p4124
aS'egregious'
p4125
aS'brusque'
p4126
aS'boring'
p4127
aS'bother'
p4128
aS'anti-proliferation'
p4129
aS'aggressor'
p4130
aS'beg'
p4131
aS'tortured'
p4132
aS'cartoonish'
p4133
aS'pugnacity'
p4134
aS'calamity'
p4135
aS'transgression'
p4136
aS'propagandize'
p4137
aS'rollercoaster'
p4138
aS'fastidiously'
p4139
aS'allergic'
p4140
aS'insignificance'
p4141
aS'torrent'
p4142
aS'misunderstand'
p4143
aS'vengeful'
p4144
aS'accusing'
p4145
aS'perverts'
p4146
aS'false'
p4147
aS'beggar'
p4148
aS'woebegone'
p4149
aS'plasticky'
p4150
aS'abomination'
p4151
aS'victimize'
p4152
aS'fail'
p4153
aS'disapointment'
p4154
aS'persecute'
p4155
aS'interruptions'
p4156
aS'nosey'
p4157
aS'killjoy'
p4158
aS'misaligned'
p4159
aS'bastard'
p4160
aS'afraid'
p4161
aS'hegemonism'
p4162
aS'haywire'
p4163
aS'opinionated'
p4164
aS'mistress'
p4165
aS'allergies'
p4166
aS'unusually'
p4167
aS'fanatic'
p4168
aS'boastful'
p4169
aS'thorny'
p4170
aS'repugnant'
p4171
aS'concerns'
p4172
aS'pretentiously'
p4173
aS'unsettled'
p4174
aS'dissuasive'
p4175
aS'pickets'
p4176
aS'autocratic'
p4177
aS'tyrannical'
p4178
aS'embroiled'
p4179
aS'savages'
p4180
aS'stringently'
p4181
aS'fastidious'
p4182
aS'bemused'
p4183
aS'disavowal'
p4184
aS'clash'
p4185
aS'disgustedly'
p4186
aS'swollen'
p4187
aS'disappointments'
p4188
aS'fatalistically'
p4189
aS'harmful'
p4190
aS'brutalising'
p4191
aS'demise'
p4192
aS'savaged'
p4193
aS'preposterously'
p4194
aS'misjudgment'
p4195
aS'alarmed'
p4196
aS'expired'
p4197
aS'bloodthirsty'
p4198
aS'starve'
p4199
aS'deny'
p4200
aS';          Handbook of Natural Language Processing, Second Edition,'
p4201
aS'scrambles'
p4202
aS'appallingly'
p4203
aS'temptation'
p4204
aS'upset'
p4205
aS'crumple'
p4206
aS'misalign'
p4207
aS'scrambled'
p4208
aS'absurd'
p4209
aS'fiasco'
p4210
aS'nebulously'
p4211
aS'brashness'
p4212
aS'skinny'
p4213
aS'maddeningly'
p4214
aS'inane'
p4215
aS'contemptuous'
p4216
aS'inexorably'
p4217
aS'qualms'
p4218
aS'unsettle'
p4219
aS'reprehensible'
p4220
aS';       International World Wide Web conference (WWW-2005), May 10-14,'
p4221
aS'bigotries'
p4222
aS'banalize'
p4223
aS'wince'
p4224
aS'vengefulness'
p4225
aS'malodorous'
p4226
aS'farfetched'
p4227
aS'antiquated'
p4228
aS'traitor'
p4229
aS'slanderer'
p4230
aS'rebuke'
p4231
aS'assail'
p4232
aS'inadvisable'
p4233
aS'fear'
p4234
aS'reprehensibly'
p4235
aS'spooky'
p4236
aS'spilling'
p4237
aS'incompliant'
p4238
aS'wrestle'
p4239
aS'disillusion'
p4240
aS'bull****'
p4241
aS'unfinished'
p4242
aS'craziness'
p4243
aS'idiocies'
p4244
aS'madman'
p4245
aS'misjudge'
p4246
aS'rash'
p4247
aS'strident'
p4248
aS'ineffectually'
p4249
aS'destabilisation'
p4250
aS'irk'
p4251
aS'betrayals'
p4252
aS'catastrophies'
p4253
aS'smutty'
p4254
aS'quitter'
p4255
aS'sinisterly'
p4256
aS'infernal'
p4257
aS'greasy'
p4258
aS'head-aches'
p4259
aS'prosecute'
p4260
aS'hassles'
p4261
aS'sued'
p4262
aS'topple'
p4263
aS'disappointingly'
p4264
aS'crumbling'
p4265
aS'dope'
p4266
aS'massacre'
p4267
aS'cranky'
p4268
aS'indiscreet'
p4269
aS'fraud'
p4270
aS'sues'
p4271
aS'hassled'
p4272
aS'fallout'
p4273
aS'downturn'
p4274
aS'stigma'
p4275
aS'forebodingly'
p4276
aS'unjustified'
p4277
aS'antagonist'
p4278
aS'ghetto'
p4279
aS'heretic'
p4280
aS'dishearten'
p4281
aS'contemptible'
p4282
aS'unacceptably'
p4283
aS';    1. The appearance of an opinion word in a sentence does not necessarily'
p4284
aS'deceiver'
p4285
aS'imperious'
p4286
aS'dejected'
p4287
aS'less-developed'
p4288
aS'defame'
p4289
aS'berserk'
p4290
aS'disingenuously'
p4291
aS'disapprobation'
p4292
aS'allegation'
p4293
aS'protesting'
p4294
aS'misdirection'
p4295
aS'shortchange'
p4296
aS'monstrosities'
p4297
aS'viper'
p4298
aS'low-rated'
p4299
aS'omission'
p4300
aS'accuses'
p4301
aS'humiliation'
p4302
aS'expel'
p4303
aS'catastrophic'
p4304
aS'showdown'
p4305
aS'admonition'
p4306
aS'lazy'
p4307
aS'freeze'
p4308
aS'scandalize'
p4309
aS';          (editors: N. Indurkhya and F. J. Damerau), 2010.'
p4310
aS'inexplainable'
p4311
aS'desititute'
p4312
aS'desperate'
p4313
aS'confrontational'
p4314
aS'rifts'
p4315
aS'strike'
p4316
aS'worryingly'
p4317
aS'dungeon'
p4318
aS'vilify'
p4319
aS'imposition'
p4320
aS'insulting'
p4321
aS'outrageousness'
p4322
aS'nightmare'
p4323
aS'fidgety'
p4324
aS'unsustainable'
p4325
aS'junky'
p4326
aS'scathingly'
p4327
aS'distressingly'
p4328
aS'taunting'
p4329
aS'injustice'
p4330
aS'derisively'
p4331
aS'horrible'
p4332
aS'crude'
p4333
aS'travesties'
p4334
aS'problems'
p4335
aS'tediously'
p4336
aS'frustrated'
p4337
aS'browbeat'
p4338
aS'imbalance'
p4339
aS'derogatory'
p4340
aS'timidly'
p4341
aS'explosive'
p4342
aS'douchbag'
p4343
aS'hooligan'
p4344
aS'trapped'
p4345
aS'weak'
p4346
aS'sorrow'
p4347
aS'eschew'
p4348
aS'regretful'
p4349
aS'laid-off'
p4350
aS'ignorance'
p4351
aS'bemoan'
p4352
aS'calamitously'
p4353
aS'barbarously'
p4354
aS'refuting'
p4355
aS'spoil'
p4356
aS'self-interested'
p4357
aS'paradoxically'
p4358
aS'stutters'
p4359
aS'poorer'
p4360
aS'mulish'
p4361
aS'absentee'
p4362
aS'declining'
p4363
aS'exclusion'
p4364
aS'undetermined'
p4365
aS'untouched'
p4366
aS'tantrum'
p4367
aS'inundate'
p4368
aS'asunder'
p4369
aS'limits'
p4370
aS'perfidious'
p4371
aS'joke'
p4372
aS'monstrously'
p4373
aS'powerless'
p4374
aS'grouse'
p4375
aS'insidious'
p4376
aS'insociable'
p4377
aS'clogged'
p4378
aS'darker'
p4379
aS'inessential'
p4380
aS'unconvincing'
p4381
aS'vent'
p4382
aS'inflammatory'
p4383
aS'spewed'
p4384
aS'opposition'
p4385
aS'invasive'
p4386
aS'contamination'
p4387
aS'narrower'
p4388
aS'unwisely'
p4389
aS'smoldering'
p4390
aS'cynicism'
p4391
aS'coercive'
p4392
aS'accursed'
p4393
aS'unclean'
p4394
aS'instigators'
p4395
aS'undependable'
p4396
aS'uprising'
p4397
aS'outsider'
p4398
aS'disintegrate'
p4399
aS'muddy'
p4400
aS'unaffordable'
p4401
aS'mismanage'
p4402
aS'whiny'
p4403
aS'frenetically'
p4404
aS'objectionable'
p4405
aS'queer'
p4406
aS'jeeringly'
p4407
aS'frighten'
p4408
aS'bewildering'
p4409
aS'uproarous'
p4410
aS'anomaly'
p4411
aS'tyranny'
p4412
aS'intefere'
p4413
aS'slumping'
p4414
aS'fibber'
p4415
aS'f**k'
p4416
aS'butchery'
p4417
aS'jaded'
p4418
aS'overwhelmingly'
p4419
aS'injustices'
p4420
aS'crappy'
p4421
aS'dispiritedly'
p4422
aS'misguide'
p4423
aS'tense'
p4424
aS'gnawing'
p4425
aS'hateful'
p4426
aS'lawlessness'
p4427
aS'gross'
p4428
aS'vanity'
p4429
aS'enviousness'
p4430
aS'unacceptablely'
p4431
aS'shameless'
p4432
aS'banish'
p4433
aS'hypocrite'
p4434
aS'wreck'
p4435
aS'fustigate'
p4436
aS'sourly'
p4437
aS'lecherous'
p4438
aS'fearful'
p4439
aS'steep'
p4440
aS'brat'
p4441
aS'innuendo'
p4442
aS'irate'
p4443
aS'pretentious'
p4444
aS'harden'
p4445
aS'remorselessly'
p4446
aS'inaccurately'
p4447
aS'fault'
p4448
aS'wild'
p4449
aS'smokescreen'
p4450
aS'venomous'
p4451
aS'intolerablely'
p4452
aS'frustrating'
p4453
aS'exorbitantance'
p4454
aS'vainly'
p4455
aS'layoff'
p4456
aS'bicker'
p4457
aS'chaotic'
p4458
aS'dissent'
p4459
aS'delusion'
p4460
aS'unworkable'
p4461
aS'disapprove'
p4462
aS'immoderately'
p4463
aS'draining'
p4464
aS'excessively'
p4465
aS'villainously'
p4466
aS'precipitous'
p4467
aS'aggressiveness'
p4468
aS'ominously'
p4469
aS'cringes'
p4470
aS'whore'
p4471
aS'lunatic'
p4472
aS'tumbled'
p4473
aS'tamper'
p4474
aS'denial'
p4475
aS'exagerates'
p4476
aS'blasphemous'
p4477
aS'lawbreaker'
p4478
aS'calamitous'
p4479
aS'maddening'
p4480
aS'indistinguishable'
p4481
aS'defiant'
p4482
aS'exagerated'
p4483
aS'adverse'
p4484
aS'strange'
p4485
aS'rattled'
p4486
aS'outbreak'
p4487
aS'terrorism'
p4488
aS'fanatics'
p4489
aS'disorient'
p4490
aS'difficult'
p4491
aS'garish'
p4492
aS'conflicting'
p4493
aS'unimaginable'
p4494
aS'prickles'
p4495
aS'balk'
p4496
aS'spiritless'
p4497
aS'reactionary'
p4498
aS'selfish'
p4499
aS'eccentric'
p4500
aS'disagree'
p4501
aS'stumbled'
p4502
aS'outcast'
p4503
aS'bullying'
p4504
aS'paralyzed'
p4505
aS'stumped'
p4506
aS'sagged'
p4507
aS'spew'
p4508
aS'painful'
p4509
aS'dust'
p4510
aS'rumors'
p4511
aS'toll'
p4512
aS'steals'
p4513
aS'destruction'
p4514
aS'rift'
p4515
aS'obstructs'
p4516
aS'gutter'
p4517
aS'distraughtness'
p4518
aS'oversights'
p4519
aS'glower'
p4520
aS'chastisement'
p4521
aS'dissing'
p4522
aS'disoriented'
p4523
aS'enrage'
p4524
aS'sueing'
p4525
aS'insurmountable'
p4526
aS'catastrophically'
p4527
aS'illusory'
p4528
aS'deadly'
p4529
aS'onerously'
p4530
aS'parasite'
p4531
aS'poisonously'
p4532
aS'devilry'
p4533
aS'excessive'
p4534
aS'intransigence'
p4535
aS'ill-tempered'
p4536
aS'cruelness'
p4537
aS'dissatisfying'
p4538
aS'glut'
p4539
aS'mistaken'
p4540
aS'inveigle'
p4541
aS'back-woods'
p4542
aS'glum'
p4543
aS'miserableness'
p4544
aS'fat-cats'
p4545
aS'untested'
p4546
aS'hypocritically'
p4547
aS'unjust'
p4548
aS'temerity'
p4549
aS'disturbance'
p4550
aS'run-down'
p4551
aS'pompous'
p4552
aS'freakish'
p4553
aS'maliciously'
p4554
aS'morbidly'
p4555
aS'killed'
p4556
aS'stressfully'
p4557
aS'rattles'
p4558
aS'crack'
p4559
aS'confusions'
p4560
aS'stupidest'
p4561
aS'scoundrel'
p4562
aS'indignation'
p4563
aS'stumbles'
p4564
aS'second-tier'
p4565
aS'stumps'
p4566
aS'myth'
p4567
aS'miscalculate'
p4568
aS'quarrellously'
p4569
aS'taunt'
p4570
aS'crushed'
p4571
aS'virulent'
p4572
aS'frighteningly'
p4573
aS'suspiciously'
p4574
aS'burden'
p4575
aS'hypocricy'
p4576
aS'atrophy'
p4577
aS'spookily'
p4578
aS'hollow'
p4579
aS'unneeded'
p4580
aS'disservice'
p4581
aS'debatable'
p4582
aS'loss'
p4583
aS'displaced'
p4584
aS'incorrigible'
p4585
aS'insolvent'
p4586
aS'lost'
p4587
aS'bigotry'
p4588
aS'mistrustful'
p4589
aS'loser'
p4590
aS'loses'
p4591
aS'incendiary'
p4592
aS'laconic'
p4593
aS'flickering'
p4594
aS'imprison'
p4595
aS'tauntingly'
p4596
aS'bafflement'
p4597
aS'adversity'
p4598
aS'fruitless'
p4599
aS'inconstant'
p4600
aS'glare'
p4601
aS'crazily'
p4602
aS'tumble'
p4603
aS'revert'
p4604
aS'audacious'
p4605
aS'flagrant'
p4606
aS'subvert'
p4607
aS'junk'
p4608
aS'hoodwink'
p4609
aS'prohibit'
p4610
aS'blameworthy'
p4611
aS'oblivious'
p4612
aS'ineligible'
p4613
aS'hissing'
p4614
aS'leery'
p4615
aS'humming'
p4616
aS'shrug'
p4617
aS'helplessness'
p4618
aS'cruelest'
p4619
aS'disbelief'
p4620
aS'leak'
p4621
aS'traumatic'
p4622
aS'eyesore'
p4623
aS'noisier'
p4624
aS'unsupportive'
p4625
aS'inflammation'
p4626
aS'ripped'
p4627
aS'impolitely'
p4628
aS'hysterically'
p4629
aS'ironies'
p4630
aS'blurry'
p4631
aS'trap'
p4632
aS'hinder'
p4633
aS'unlamentably'
p4634
aS'mania'
p4635
aS'noise'
p4636
aS'murderer'
p4637
aS'inaccurate'
p4638
aS'slooow'
p4639
aS'slur'
p4640
aS'unnatural'
p4641
aS'combative'
p4642
aS'worthless'
p4643
aS'slut'
p4644
aS'shabby'
p4645
aS'dogmatic'
p4646
aS'expire'
p4647
aS'nonresponsive'
p4648
aS'asinine'
p4649
aS'scolded'
p4650
aS'imaginary'
p4651
aS'fetid'
p4652
aS'adversary'
p4653
aS'coldly'
p4654
aS'jobless'
p4655
aS'inconsiderate'
p4656
aS'un-viewable'
p4657
aS'wreak'
p4658
aS'bewilder'
p4659
aS'shipwreck'
p4660
aS'vexation'
p4661
aS'sinister'
p4662
aS'flake'
p4663
aS'flaky'
p4664
aS'maladjustment'
p4665
aS'ingrate'
p4666
aS'mangling'
p4667
aS'arrogantly'
p4668
aS'concession'
p4669
aS'uncaring'
p4670
aS'diabolical'
p4671
aS'futility'
p4672
aS'baseless'
p4673
aS'high-priced'
p4674
aS'villify'
p4675
aS'argumentative'
p4676
aS'dud'
p4677
aS'uncertain'
p4678
aS'obliterated'
p4679
aS'loner'
p4680
aS'chronic'
p4681
aS'cancerous'
p4682
aS'disaffected'
p4683
aS'na\xefve'
p4684
aS'rigidness'
p4685
aS'skeptical'
p4686
aS'secretive'
p4687
aS'negate'
p4688
aS'unproductive'
p4689
aS'pointless'
p4690
aS'gape'
p4691
aS'panick'
p4692
aS'agonizing'
p4693
aS'impatience'
p4694
aS'noxious'
p4695
aS'buckle'
p4696
aS'adversarial'
p4697
aS'disapproval'
p4698
aS'kooky'
p4699
aS'delusions'
p4700
aS'frustration'
p4701
aS'heresy'
p4702
aS'extravagant'
p4703
aS'insanely'
p4704
aS'touted'
p4705
aS'earsplitting'
p4706
aS'extort'
p4707
aS'corrosions'
p4708
aS'treacherous'
p4709
aS'hazardous'
p4710
aS'grudge'
p4711
aS'admonish'
p4712
aS'contradictory'
p4713
aS'bum'
p4714
aS'grate'
p4715
aS'contemptuously'
p4716
aS'villains'
p4717
aS'bug'
p4718
aS'stymied'
p4719
aS'neurotically'
p4720
aS'scream'
p4721
aS'detestable'
p4722
aS'wretchedly'
p4723
aS'soreness'
p4724
aS'dangerous'
p4725
aS'mists'
p4726
aS'grieve'
p4727
aS'jealousness'
p4728
aS'distract'
p4729
aS'scoffingly'
p4730
aS'cruel'
p4731
aS'limit'
p4732
aS'static'
p4733
aS'problem'
p4734
aS'detestably'
p4735
aS'excruciatingly'
p4736
aS'bewail'
p4737
aS'unusual'
p4738
aS'horrific'
p4739
aS'intimidating'
p4740
aS'inadequate'
p4741
aS'meaningless'
p4742
aS'dearth'
p4743
aS'pig'
p4744
aS'twist'
p4745
aS'troublesomely'
p4746
aS'repel'
p4747
aS'violate'
p4748
aS'ultimatum'
p4749
aS'tumultuous'
p4750
aS'unwatchable'
p4751
aS'mysteriously'
p4752
aS'letch'
p4753
aS'slaughter'
p4754
aS'sharply'
p4755
aS'torment'
p4756
aS'unintelligible'
p4757
aS'acerbically'
p4758
aS'incorrigibly'
p4759
aS'demonize'
p4760
aS'ramshackle'
p4761
aS'offensive'
p4762
aS'immobilized'
p4763
aS'evildoer'
p4764
aS'gossip'
p4765
aS'crummy'
p4766
aS'sick'
p4767
aS'cutthroat'
p4768
aS'misconceptions'
p4769
aS'long-time'
p4770
aS'overwhelms'
p4771
aS'hysteria'
p4772
aS'scandal'
p4773
aS'illusion'
p4774
aS'reckless'
p4775
aS'satirize'
p4776
aS'recklessly'
p4777
aS'illegally'
p4778
aS'blunders'
p4779
aS'slothful'
p4780
aS'admonishingly'
p4781
aS'insupportable'
p4782
aS'oppression'
p4783
aS'treason'
p4784
aS'inescapable'
p4785
aS'sleazy'
p4786
aS'baffling'
p4787
aS'inescapably'
p4788
aS'dragoon'
p4789
aS'longing'
p4790
aS'stab'
p4791
aS'squeak'
p4792
aS'hotheaded'
p4793
aS'animosity'
p4794
aS'dissension'
p4795
aS'squeal'
p4796
aS'alienated'
p4797
aS'unreasonably'
p4798
aS'testily'
p4799
aS'sass'
p4800
aS'frightfully'
p4801
aS'reprovingly'
p4802
aS'undercutting'
p4803
aS'decrepit'
p4804
aS'impair'
p4805
aS'pandering'
p4806
aS'monstrous'
p4807
aS'villainous'
p4808
aS'disconsolation'
p4809
aS'unsteadily'
p4810
aS'pugnaciously'
p4811
aS'vehement'
p4812
aS'unspeakable'
p4813
aS'disruptive'
p4814
atp4815
Rp4816
sS'negative'
p4817
g1
((lp4818
g6
aS'unencumbered'
p4819
aS'pardon'
p4820
aS'saver'
p4821
aS'desirable'
p4822
aS'encouragingly'
p4823
aS'sleek'
p4824
aS'pamperedly'
p4825
aS'worked'
p4826
aS'undisputed'
p4827
aS'sagely'
p4828
aS'cushy'
p4829
aS'originality'
p4830
aS'outwit'
p4831
aS'wholeheartedly'
p4832
aS'tenacity'
p4833
aS'regal'
p4834
aS'pride'
p4835
aS'worth'
p4836
aS'wondrous'
p4837
aS'compassion'
p4838
aS'dynamic'
p4839
aS'tantalizing'
p4840
aS'gratification'
p4841
aS'reforms'
p4842
aS'courageous'
p4843
aS'prize'
p4844
aS'ovation'
p4845
aS'marvelled'
p4846
aS'convenience'
p4847
aS'flashy'
p4848
aS'delightfully'
p4849
aS'steadfastness'
p4850
aS'triumph'
p4851
aS'enjoy'
p4852
aS'veritable'
p4853
aS'concise'
p4854
aS'consistent'
p4855
aS'excelled'
p4856
aS'wonderfully'
p4857
aS'elegant'
p4858
aS'fabulous'
p4859
aS'valiant'
p4860
aS'worthiness'
p4861
aS'desirous'
p4862
aS'revolutionize'
p4863
aS'liberty'
p4864
aS'bonuses'
p4865
aS'reverently'
p4866
aS'endorse'
p4867
aS'resilient'
p4868
aS'non-violence'
p4869
aS'hero'
p4870
aS'festive'
p4871
aS'jubilantly'
p4872
aS'feisty'
p4873
aS'refinement'
p4874
aS'protection'
p4875
aS'humility'
p4876
aS'celebration'
p4877
aS'kudos'
p4878
aS'uplifting'
p4879
aS'god-send'
p4880
aS'well-bred'
p4881
aS'lucrative'
p4882
aS'suitable'
p4883
aS'intrigue'
p4884
aS'imaculate'
p4885
aS'golden'
p4886
aS'fantastic'
p4887
aS'secure'
p4888
aS'patience'
p4889
aS'vivid'
p4890
aS'achievable'
p4891
aS'romantically'
p4892
aS'well-balanced'
p4893
aS'tickle'
p4894
aS'sumptuously'
p4895
aS'catchy'
p4896
aS'best-selling'
p4897
aS'impartiality'
p4898
aS'glimmering'
p4899
aS'calm'
p4900
aS'recommend'
p4901
aS'holy'
p4902
aS'successful'
p4903
aS'mesmerize'
p4904
aS'award'
p4905
aS'exuberantly'
p4906
aS'ardently'
p4907
aS'excellent'
p4908
aS'striving'
p4909
aS'ecenomical'
p4910
aS'cheapest'
p4911
aS'famed'
p4912
aS'accomplishment'
p4913
aS'elegantly'
p4914
aS'excellant'
p4915
aS'achievible'
p4916
aS'radiance'
p4917
aS'goood'
p4918
aS'fresher'
p4919
aS'ingenuity'
p4920
aS'excallent'
p4921
aS'guarantee'
p4922
aS'preferably'
p4923
aS'recovery'
p4924
aS'amazing'
p4925
aS'titillate'
p4926
aS'preferable'
p4927
aS'swiftness'
p4928
aS'dignified'
p4929
aS'beauty'
p4930
aS'righten'
p4931
aS'breathlessness'
p4932
aS'delicacy'
p4933
aS'loyalty'
p4934
aS'astoundingly'
p4935
aS'modest'
p4936
aS'meaningful'
p4937
aS'rejoicingly'
p4938
aS'splendid'
p4939
aS'effective'
p4940
aS'wins'
p4941
aS'appreciate'
p4942
aS'stimulate'
p4943
aS'overtakes'
p4944
aS'reforming'
p4945
aS'modesty'
p4946
aS'gumption'
p4947
aS'satisfied'
p4948
aS'outshine'
p4949
aS'innovative'
p4950
aS'responsive'
p4951
aS'fidelity'
p4952
aS'admirably'
p4953
aS'pleasurably'
p4954
aS'succeeds'
p4955
aS'alluringly'
p4956
aS'better'
p4957
aS'entranced'
p4958
aS'valor'
p4959
aS'admirable'
p4960
aS'easier'
p4961
aS'pleasurable'
p4962
aS'glorify'
p4963
aS'remission'
p4964
aS'vouchsafe'
p4965
aS'enrich'
p4966
aS'amenable'
p4967
aS'top-quality'
p4968
aS'ebullient'
p4969
aS'reasonably'
p4970
aS'marvellous'
p4971
aS'spotless'
p4972
aS'victory'
p4973
aS'reasonable'
p4974
aS'fecilitous'
p4975
aS'elatedly'
p4976
aS'pepping'
p4977
aS'luck'
p4978
aS'bright'
p4979
aS'woo'
p4980
aS'apotheosis'
p4981
aS'ameliorate'
p4982
aS'dawn'
p4983
aS'unbound'
p4984
aS'sparkle'
p4985
aS'encourage'
p4986
aS'unabashed'
p4987
aS'easiness'
p4988
aS'heavenly'
p4989
aS'tops'
p4990
aS'fave'
p4991
aS'free'
p4992
aS'fervid'
p4993
aS'masterpiece'
p4994
aS'dexterous'
p4995
aS'enhance'
p4996
aS'amazement'
p4997
aS'slammin'
p4998
aS'cornerstone'
p4999
aS'counter-attacks'
p5000
aS'undisputably'
p5001
aS'undaunted'
p5002
aS'inexpensive'
p5003
aS'flawless'
p5004
aS'speedy'
p5005
aS'tempting'
p5006
aS'attune'
p5007
aS'aspire'
p5008
aS'undisputable'
p5009
aS'wowed'
p5010
aS'rock-stars'
p5011
aS'non-violent'
p5012
aS'rapturously'
p5013
aS'angelic'
p5014
aS'playfully'
p5015
aS'lovably'
p5016
aS'encouraging'
p5017
aS'lovable'
p5018
aS'; If you use this list, please cite one of the following two papers:'
p5019
aS'delicious'
p5020
aS'thoughtfully'
p5021
aS'clarity'
p5022
aS'sharpest'
p5023
aS'masterfully'
p5024
aS'revival'
p5025
aS'; This file contains a list of POSITIVE opinion words (or sentiment words).'
p5026
aS'top'
p5027
aS'outstandingly'
p5028
aS'euphoric'
p5029
aS'euphoria'
p5030
aS'plentiful'
p5031
aS'enthral'
p5032
aS'master'
p5033
aS'insightful'
p5034
aS'enthrall'
p5035
aS'happily'
p5036
aS'diversified'
p5037
aS'wisdom'
p5038
aS'positively'
p5039
aS'mercy'
p5040
aS'congratulatory'
p5041
aS'exultation'
p5042
aS'reaffirm'
p5043
aS'well-positioned'
p5044
aS'splendidly'
p5045
aS'deserving'
p5046
aS'acclaim'
p5047
aS'willingness'
p5048
aS'modern'
p5049
aS'low-priced'
p5050
aS'convience'
p5051
aS'outperforms'
p5052
aS'brainy'
p5053
aS'unaffected'
p5054
aS'praising'
p5055
aS'quieter'
p5056
aS'genuine'
p5057
aS'convenient'
p5058
aS'eagerly'
p5059
aS'elation'
p5060
aS'recommended'
p5061
aS'overtook'
p5062
aS'amusing'
p5063
aS'responsibly'
p5064
aS'effectiveness'
p5065
aS'propitious'
p5066
aS'well-backlit'
p5067
aS'thrilled'
p5068
aS'visionary'
p5069
aS'savvy'
p5070
aS'affirmation'
p5071
aS'reverence'
p5072
aS'exonerate'
p5073
aS'glow'
p5074
aS'lifesaver'
p5075
aS'sweetly'
p5076
aS'orderly'
p5077
aS'reputation'
p5078
aS'calmness'
p5079
aS'entertaining'
p5080
aS'marvel'
p5081
aS'inspire'
p5082
aS'marveled'
p5083
aS'endear'
p5084
aS'rapture'
p5085
aS'brilliance'
p5086
aS'respectfully'
p5087
aS'enjoyed'
p5088
aS'marvelously'
p5089
aS'quaint'
p5090
aS'astounded'
p5091
aS'guidance'
p5092
aS'gutsy'
p5093
aS'bliss'
p5094
aS'excitedly'
p5095
aS'heartily'
p5096
aS'adequate'
p5097
aS'continuity'
p5098
aS'colorful'
p5099
aS'rejoicing'
p5100
aS'prospros'
p5101
aS'ardor'
p5102
aS'foremost'
p5103
aS'tenaciously'
p5104
aS'trust'
p5105
aS'considerate'
p5106
aS'relish'
p5107
aS'cleanly'
p5108
aS';       and Comparing Opinions on the Web." Proceedings of the 14th'
p5109
aS'nicely'
p5110
aS'altruistically'
p5111
aS'large-capacity'
p5112
aS'monumental'
p5113
aS'stunningly'
p5114
aS'enchant'
p5115
aS'fragrant'
p5116
aS'fascinating'
p5117
aS'rockstar'
p5118
aS'gladness'
p5119
aS'winnable'
p5120
aS'well-educated'
p5121
aS'best'
p5122
aS'immaculately'
p5123
aS'succeeding'
p5124
aS'simplest'
p5125
aS'eyecatch'
p5126
aS'enrapt'
p5127
aS'adventuresome'
p5128
aS'snazzy'
p5129
aS'supports'
p5130
aS'devout'
p5131
aS'dexterously'
p5132
aS'improve'
p5133
aS'protect'
p5134
aS'profuse'
p5135
aS'ilu'
p5136
aS'sublime'
p5137
aS'exceeds'
p5138
aS'distinction'
p5139
aS'contribution'
p5140
aS'freshest'
p5141
aS'fearlessly'
p5142
aS'peacefully'
p5143
aS'self-respect'
p5144
aS'exemplary'
p5145
aS';       Proceedings of the ACM SIGKDD International Conference on Knowledge'
p5146
aS'awesomely'
p5147
aS'majestic'
p5148
aS'speedily'
p5149
aS'gratitude'
p5150
aS'strong'
p5151
aS'nicer'
p5152
aS'beneficiary'
p5153
aS'confident'
p5154
aS'charisma'
p5155
aS'brand-new'
p5156
aS'miraculously'
p5157
aS'privilege'
p5158
aS'flexible'
p5159
aS'lovely'
p5160
aS'adroitly'
p5161
aS'warmth'
p5162
aS'idol'
p5163
aS'premier'
p5164
aS'easy'
p5165
aS'prosperous'
p5166
aS'excite'
p5167
aS'well-run'
p5168
aS'coherent'
p5169
aS'wowing'
p5170
aS'dote'
p5171
aS'spellbind'
p5172
aS'gracious'
p5173
aS';   Bing Liu, Minqing Hu and Junsheng Cheng. "Opinion Observer: Analyzing'
p5174
aS'dotingly'
p5175
aS'affirm'
p5176
aS'inviolable'
p5177
aS'examplary'
p5178
aS'neat'
p5179
aS'safely'
p5180
aS'entertains'
p5181
aS'rightness'
p5182
aS'overtaking'
p5183
aS'sincerity'
p5184
aS'succes'
p5185
aS'dummy-proof'
p5186
aS'congratulation'
p5187
aS'preeminent'
p5188
aS'defeated'
p5189
aS'dazzled'
p5190
aS'upscale'
p5191
aS'uplift'
p5192
aS'smoothest'
p5193
aS'trusted'
p5194
aS'shimmering'
p5195
aS'admiration'
p5196
aS'agreeableness'
p5197
aS'harmony'
p5198
aS'world-famous'
p5199
aS'survival'
p5200
aS'fairly'
p5201
aS'ergonomical'
p5202
aS'effortlessly'
p5203
aS'outperformed'
p5204
aS'opulent'
p5205
aS'delight'
p5206
aS'renaissance'
p5207
aS'groundbreaking'
p5208
aS'positives'
p5209
aS'tremendously'
p5210
aS'suffices'
p5211
aS'stupendous'
p5212
aS'humble'
p5213
aS'bonny'
p5214
aS'savings'
p5215
aS'greatest'
p5216
aS'admiringly'
p5217
aS'abound'
p5218
aS'dignify'
p5219
aS'envious'
p5220
aS'personages'
p5221
aS'extol'
p5222
aS'amusingly'
p5223
aS'enlighten'
p5224
aS'agile'
p5225
aS'ease'
p5226
aS'exalt'
p5227
aS'affinity'
p5228
aS'beloved'
p5229
aS'righteous'
p5230
aS'tolerable'
p5231
aS'usable'
p5232
aS'brainiest'
p5233
aS'firmer'
p5234
aS'unequivocally'
p5235
aS'auspicious'
p5236
aS'affability'
p5237
aS'advanced'
p5238
aS'harmoniously'
p5239
aS'dignity'
p5240
aS'zeal'
p5241
aS'gifted'
p5242
aS'excitedness'
p5243
aS'splendor'
p5244
aS'invaluable'
p5245
aS'effusion'
p5246
aS'beneficial'
p5247
aS'right'
p5248
aS'honored'
p5249
aS'flatter'
p5250
aS'successfully'
p5251
aS'revel'
p5252
aS'unrivaled'
p5253
aS'congratulate'
p5254
aS'humor'
p5255
aS'phenomenal'
p5256
aS'creative'
p5257
aS'witty'
p5258
aS'enticingly'
p5259
aS'sturdy'
p5260
aS'adorable'
p5261
aS'posh'
p5262
aS'constructive'
p5263
aS'restructuring'
p5264
aS'idolized'
p5265
aS'memorable'
p5266
aS'super'
p5267
aS'endorsing'
p5268
aS'empowerment'
p5269
aS'trustworthy'
p5270
aS'titillatingly'
p5271
aS'blithe'
p5272
aS'cherish'
p5273
aS'thinner'
p5274
aS'unabashedly'
p5275
aS'low-cost'
p5276
aS'lavishly'
p5277
aS'delighted'
p5278
aS'respectable'
p5279
aS'finely'
p5280
aS'formidable'
p5281
aS'balanced'
p5282
aS'refined'
p5283
aS'amazingly'
p5284
aS'suffice'
p5285
aS'illustrious'
p5286
aS'well-connected'
p5287
aS'victorious'
p5288
aS'greatness'
p5289
aS'happy'
p5290
aS'overjoyed'
p5291
aS'diligence'
p5292
aS'fascination'
p5293
aS'unfazed'
p5294
aS'heal'
p5295
aS'talents'
p5296
aS'powerfully'
p5297
aS'understandable'
p5298
aS'prettily'
p5299
aS'astonished'
p5300
aS'evaluative'
p5301
aS'luxuriant'
p5302
aS'handily'
p5303
aS'high-quality'
p5304
aS'invincible'
p5305
aS'bargain'
p5306
aS'generosity'
p5307
aS'nicest'
p5308
aS'promises'
p5309
aS'ingenuously'
p5310
aS'classic'
p5311
aS'stupendously'
p5312
aS'proven'
p5313
aS'soothe'
p5314
aS'cure-all'
p5315
aS'proves'
p5316
aS'gracefully'
p5317
aS'acclaimed'
p5318
aS'believable'
p5319
aS'levity'
p5320
aS'willingly'
p5321
aS'faithful'
p5322
aS'authoritative'
p5323
aS'excel'
p5324
aS'ambitious'
p5325
aS';       Bing Liu. "Sentiment Analysis and Subjectivity." An chapter in'
p5326
aS'frolic'
p5327
aS'eye-catch'
p5328
aS'subsidize'
p5329
aS'roomier'
p5330
aS';   Minqing Hu and Bing Liu. "Mining and Summarizing Customer Reviews."'
p5331
aS'clear-cut'
p5332
aS'guiltless'
p5333
aS'convincing'
p5334
aS'polite'
p5335
aS'mightily'
p5336
aS'comely'
p5337
aS'magnificence'
p5338
aS'entrust'
p5339
aS'unmatched'
p5340
aS'pros'
p5341
aS'faster'
p5342
aS'shimmeringly'
p5343
aS'luckier'
p5344
aS'warm'
p5345
aS'whoooa'
p5346
aS'intimacy'
p5347
aS'restored'
p5348
aS'well-rounded'
p5349
aS'remarkable'
p5350
aS'pep'
p5351
aS'leads'
p5352
aS'grateful'
p5353
aS'remarkably'
p5354
aS'abundant'
p5355
aS'empathize'
p5356
aS'extoll'
p5357
aS'honoring'
p5358
aS'fancier'
p5359
aS'counter-attack'
p5360
aS'amaze'
p5361
aS'persevere'
p5362
aS'abundance'
p5363
aS'protective'
p5364
aS'advantage'
p5365
aS'exalted'
p5366
aS'navigable'
p5367
aS'rapturous'
p5368
aS'cool'
p5369
aS'impressive'
p5370
aS'excellency'
p5371
aS'enthuse'
p5372
aS'hooray'
p5373
aS'engrossing'
p5374
aS'excellence'
p5375
aS'sweeten'
p5376
aS'better-than-expected'
p5377
aS'spiritual'
p5378
aS'brave'
p5379
aS'verifiable'
p5380
aS'tougher'
p5381
aS'bravo'
p5382
aS'adulation'
p5383
aS'comforting'
p5384
aS'kindliness'
p5385
aS'enticing'
p5386
aS'stately'
p5387
aS'well-established'
p5388
aS'cleanliness'
p5389
aS'celebrated'
p5390
aS'pleasingly'
p5391
aS'favour'
p5392
aS'supporter'
p5393
aS'unrestricted'
p5394
aS'appeal'
p5395
aS'boost'
p5396
aS'satisfy'
p5397
aS'supporting'
p5398
aS'efficacious'
p5399
aS'inspiring'
p5400
aS'entertain'
p5401
aS'ingenuous'
p5402
aS'lustrous'
p5403
aS'momentous'
p5404
aS'merriment'
p5405
aS'standout'
p5406
aS'redemption'
p5407
aS'brilliant'
p5408
aS'staunchly'
p5409
aS'accomplished'
p5410
aS'patriotic'
p5411
aS'priceless'
p5412
aS'conveniently'
p5413
aS'reclaim'
p5414
aS'gorgeously'
p5415
aS'breathtaking'
p5416
aS'adjustable'
p5417
aS'love'
p5418
aS'humour'
p5419
aS'keenness'
p5420
aS'erudite'
p5421
aS'prefer'
p5422
aS'hardier'
p5423
aS'marvelous'
p5424
aS'flexibility'
p5425
aS'self-sufficient'
p5426
aS'surmount'
p5427
aS'sporty'
p5428
aS'sharper'
p5429
aS'positive'
p5430
aS'captivate'
p5431
aS'joyous'
p5432
aS'rejuvenating'
p5433
aS'cherished'
p5434
aS'upheld'
p5435
aS'compactly'
p5436
aS'loving'
p5437
aS'trophy'
p5438
aS'adoringly'
p5439
aS'upgradable'
p5440
aS'virtue'
p5441
aS'savior'
p5442
aS'easiest'
p5443
aS'defeats'
p5444
aS'harmonious'
p5445
aS';       Washington, USA,'
p5446
aS'stimulating'
p5447
aS'toll-free'
p5448
aS'geeky'
p5449
aS'deservedly'
p5450
aS'dedicated'
p5451
aS'trump'
p5452
aS'awesome'
p5453
aS'supremacy'
p5454
aS'refine'
p5455
aS'admirer'
p5456
aS'chic'
p5457
aS'intelligible'
p5458
aS'unwavering'
p5459
aS'productive'
p5460
aS'fortunately'
p5461
aS'eloquent'
p5462
aS'strikingly'
p5463
aS'pure'
p5464
aS'endorsement'
p5465
aS'convienient'
p5466
aS'unforgettable'
p5467
aS'unbeatable'
p5468
aS'paramount'
p5469
aS'peerless'
p5470
aS'impartial'
p5471
aS'praiseworthy'
p5472
aS'convincingly'
p5473
aS'sustainability'
p5474
aS'vivacious'
p5475
aS'improving'
p5476
aS'flourish'
p5477
aS'infallibility'
p5478
aS'succeeded'
p5479
aS'amuse'
p5480
aS'purify'
p5481
aS'fluent'
p5482
aS'sagacity'
p5483
aS'fortuitously'
p5484
aS'dreamland'
p5485
aS'impartially'
p5486
aS'refund'
p5487
aS'cute'
p5488
aS'innocuous'
p5489
aS'lighter'
p5490
aS'noteworthy'
p5491
aS'playful'
p5492
aS'accolades'
p5493
aS'pre-eminent'
p5494
aS'thoughtfulness'
p5495
aS'avid'
p5496
aS'swank'
p5497
aS'solace'
p5498
aS'cleanest'
p5499
aS'hot'
p5500
aS'attraction'
p5501
aS'gem'
p5502
aS'work'
p5503
aS'instantly'
p5504
aS'smarter'
p5505
aS'soulful'
p5506
aS'courageously'
p5507
aS'qualified'
p5508
aS'hale'
p5509
aS'wealthy'
p5510
aS'aspirations'
p5511
aS'first-rate'
p5512
aS'appreciatively'
p5513
aS'stabilize'
p5514
aS'thankful'
p5515
aS'truthful'
p5516
aS'realistic'
p5517
aS'accomplishments'
p5518
aS'rightly'
p5519
aS'skilled'
p5520
aS'revere'
p5521
aS'raptureously'
p5522
aS'edify'
p5523
aS'jubiliant'
p5524
aS'peacekeepers'
p5525
aS'breakthrough'
p5526
aS'richly'
p5527
aS'prudently'
p5528
aS'obsession'
p5529
aS'accomplish'
p5530
aS'bullish'
p5531
aS'boundless'
p5532
aS'tingle'
p5533
aS'rational'
p5534
aS'bless'
p5535
aS'dominate'
p5536
aS'correct'
p5537
aS'assurance'
p5538
aS'streamlined'
p5539
aS'cooperatively'
p5540
aS'self-determination'
p5541
aS'preferes'
p5542
aS'oasis'
p5543
aS'advantages'
p5544
aS'matchless'
p5545
aS'skillfully'
p5546
aS'prefered'
p5547
aS'heroize'
p5548
aS'invaluablely'
p5549
aS'gusto'
p5550
aS'honest'
p5551
aS'best-known'
p5552
aS'sensationally'
p5553
aS'assuredly'
p5554
aS'simplifies'
p5555
aS'striking'
p5556
aS'merrily'
p5557
aS'simplified'
p5558
aS'truthfully'
p5559
aS'silent'
p5560
aS'authentic'
p5561
aS'traction'
p5562
aS'fortuitous'
p5563
aS'fiery'
p5564
aS'cost-effective'
p5565
aS'hug'
p5566
aS'appreciates'
p5567
aS'proving'
p5568
aS'accurately'
p5569
aS'stylized'
p5570
aS'err-free'
p5571
aS'appreciated'
p5572
aS'raptureous'
p5573
aS'overtaken'
p5574
aS'dirt-cheap'
p5575
aS'thumbs-up'
p5576
aS'diplomatic'
p5577
aS'optimism'
p5578
aS'individualized'
p5579
aS'prefers'
p5580
aS'proactive'
p5581
aS'poeticize'
p5582
aS'angel'
p5583
aS'tantalize'
p5584
aS'sumptuous'
p5585
aS'workable'
p5586
aS'first-in-class'
p5587
aS'prestigious'
p5588
aS'recover'
p5589
aS'luminous'
p5590
aS'prosperity'
p5591
aS'astonishingly'
p5592
aS'fashionable'
p5593
aS'efficient'
p5594
aS'terrific'
p5595
aS'acumen'
p5596
aS'ideal'
p5597
aS'personalized'
p5598
aS'fashionably'
p5599
aS'relaxed'
p5600
aS'futurestic'
p5601
aS'amiable'
p5602
aS'agilely'
p5603
aS'neatly'
p5604
aS'clearer'
p5605
aS'remunerate'
p5606
aS'contrasty'
p5607
aS'expertly'
p5608
aS'supremely'
p5609
aS'cleared'
p5610
aS'well-intentioned'
p5611
aS'viewable'
p5612
aS'swankier'
p5613
aS'flawlessly'
p5614
aS'energize'
p5615
aS'saintliness'
p5616
aS'proud'
p5617
aS'steady'
p5618
aS'defeating'
p5619
aS'illuminating'
p5620
aS'satisfactorily'
p5621
aS'precise'
p5622
aS'unassailable'
p5623
aS'palatial'
p5624
aS'merit'
p5625
aS'gratifies'
p5626
aS'elevate'
p5627
aS'elan'
p5628
aS'gratified'
p5629
aS'painlessly'
p5630
aS'enthusiast'
p5631
aS'principled'
p5632
aS'favor'
p5633
aS'treasure'
p5634
aS'well-wishers'
p5635
aS'liberation'
p5636
aS'energy-saving'
p5637
aS'enthusiasm'
p5638
aS'godlike'
p5639
aS'upgradeable'
p5640
aS'infallibly'
p5641
aS'revolutionized'
p5642
aS'congratulations'
p5643
aS'infallible'
p5644
aS'lionhearted'
p5645
aS'celebrate'
p5646
aS'pinnacle'
p5647
aS'keenly'
p5648
aS'outperform'
p5649
aS'topnotch'
p5650
aS'effectual'
p5651
aS'heartwarming'
p5652
aS'enthralled'
p5653
aS'honesty'
p5654
aS'soothingly'
p5655
aS'satisfies'
p5656
aS'wonder'
p5657
aS'foresight'
p5658
aS'satisfying'
p5659
aS'steadfast'
p5660
aS'kid-friendly'
p5661
aS'enough'
p5662
aS'refreshed'
p5663
aS'adore'
p5664
aS'enjoys'
p5665
aS'affordable'
p5666
aS'fearless'
p5667
aS'gratefully'
p5668
aS'jovial'
p5669
aS'awards'
p5670
aS'affordably'
p5671
aS'realizable'
p5672
aS'talented'
p5673
aS'crisper'
p5674
aS'successes'
p5675
aS'quiet'
p5676
aS'laudably'
p5677
aS'enjoyable'
p5678
aS'adroit'
p5679
aS'plusses'
p5680
aS'gaiety'
p5681
aS';       mistakes. They are included as these misspelled words appear'
p5682
aS'wholesome'
p5683
aS'prodigy'
p5684
aS'charismatic'
p5685
aS'laudable'
p5686
aS'worthwhile'
p5687
aS'sensible'
p5688
aS'awsome'
p5689
aS'capable'
p5690
aS'dependably'
p5691
aS'stylishly'
p5692
aS'dependable'
p5693
aS'peaceful'
p5694
aS'capably'
p5695
aS'maneuverable'
p5696
aS'enraptured'
p5697
aS'educated'
p5698
aS'dead-on'
p5699
aS'impressiveness'
p5700
aS'ultra-crisp'
p5701
aS'attentive'
p5702
aS'invigorate'
p5703
aS'prominence'
p5704
aS'straighten'
p5705
aS'promising'
p5706
aS'cherub'
p5707
aS'coolest'
p5708
aS'promised'
p5709
aS'amiability'
p5710
aS'zenith'
p5711
aS'sincere'
p5712
aS'wisely'
p5713
aS'fame'
p5714
aS'breathtakingly'
p5715
aS'poetic'
p5716
aS'triumphantly'
p5717
aS'deference'
p5718
aS'peps'
p5719
aS'favorited'
p5720
aS'safe'
p5721
aS'maturely'
p5722
aS'deft'
p5723
aS'enjoyment'
p5724
aS'delicate'
p5725
aS'cheery'
p5726
aS'nobly'
p5727
aS'enchanting'
p5728
aS'awesomeness'
p5729
aS'amazes'
p5730
aS'delectable'
p5731
aS'magical'
p5732
aS'substantive'
p5733
aS'staunchness'
p5734
aS'breeze'
p5735
aS'relief'
p5736
aS'exceled'
p5737
aS'reward'
p5738
aS'uncomplicated'
p5739
aS'convient'
p5740
aS'adoring'
p5741
aS'knowledgeable'
p5742
aS'vibrantly'
p5743
aS'valuable'
p5744
aS'lavish'
p5745
aS'reputable'
p5746
aS'renewed'
p5747
aS'dauntless'
p5748
aS'all-around'
p5749
aS'dumbfounding'
p5750
aS'astonishment'
p5751
aS'complements'
p5752
aS'poised'
p5753
aS'joyful'
p5754
aS'exult'
p5755
aS'spectacular'
p5756
aS'soundly'
p5757
aS'earnest'
p5758
aS'grin'
p5759
aS'sensational'
p5760
aS'fortune'
p5761
aS'exquisitely'
p5762
aS'endorses'
p5763
aS'miracle'
p5764
aS'benefit'
p5765
aS'gratifyingly'
p5766
aS'miraculous'
p5767
aS'passionate'
p5768
aS'endorsed'
p5769
aS'well-received'
p5770
aS'satisfactory'
p5771
aS'obsessions'
p5772
aS'smiles'
p5773
aS'divine'
p5774
aS'redeeming'
p5775
aS'booming'
p5776
aS'eloquence'
p5777
aS'prolific'
p5778
aS'slick'
p5779
aS'beckons'
p5780
aS'gladden'
p5781
aS'freed'
p5782
aS'welcome'
p5783
aS'zest'
p5784
aS'intimate'
p5785
aS'poise'
p5786
aS'notably'
p5787
aS'exciting'
p5788
aS'fondness'
p5789
aS'piety'
p5790
aS'favorite'
p5791
aS'thrive'
p5792
aS'masterpieces'
p5793
aS'daringly'
p5794
aS'fertile'
p5795
aS'bountiful'
p5796
aS'steadiness'
p5797
aS'commodious'
p5798
aS'lively'
p5799
aS'rockstars'
p5800
aS'wonderous'
p5801
aS'heroine'
p5802
aS'compliant'
p5803
aS'politeness'
p5804
aS'decisive'
p5805
aS'windfall'
p5806
aS'immaculate'
p5807
aS'undamaged'
p5808
aS'tranquility'
p5809
aS'regard'
p5810
aS'sophisticated'
p5811
aS'god-given'
p5812
aS'romantic'
p5813
aS'afordable'
p5814
aS'receptive'
p5815
aS'lawfully'
p5816
aS'sensibly'
p5817
aS'merriness'
p5818
aS'exemplar'
p5819
aS'flatteringly'
p5820
aS'affection'
p5821
aS'brotherly'
p5822
aS'invigorating'
p5823
aS'thriving'
p5824
aS'high-spirited'
p5825
aS'ingeniously'
p5826
aS'tranquil'
p5827
aS'first-class'
p5828
aS'ideally'
p5829
aS'loyal'
p5830
aS'productively'
p5831
aS'unparalleled'
p5832
aS'coherence'
p5833
aS'gaining'
p5834
aS'blessing'
p5835
aS'wieldy'
p5836
aS'reverent'
p5837
aS'refunded'
p5838
aS'a+'
p5839
aS'important'
p5840
aS'equitable'
p5841
aS'prudent'
p5842
aS'unselfish'
p5843
aS'titillating'
p5844
aS'dextrous'
p5845
aS'hard-working'
p5846
aS'thoughtful'
p5847
aS'cooperative'
p5848
aS'fairness'
p5849
aS'homage'
p5850
aS'sparkling'
p5851
aS'fervor'
p5852
aS'smile'
p5853
aS'enjoying'
p5854
aS'problem-solver'
p5855
aS'resounding'
p5856
aS'straightforward'
p5857
aS'fav'
p5858
aS'carefree'
p5859
aS'deginified'
p5860
aS'congenial'
p5861
aS'manageable'
p5862
aS'securely'
p5863
aS'elated'
p5864
aS'heaven'
p5865
aS'inpressed'
p5866
aS'benevolent'
p5867
aS'laud'
p5868
aS'sane'
p5869
aS'enrapture'
p5870
aS'tender'
p5871
aS'trustworthiness'
p5872
aS'quicker'
p5873
aS'portable'
p5874
aS'affably'
p5875
aS'enhancement'
p5876
aS'resound'
p5877
aS'affectation'
p5878
aS'affable'
p5879
aS'pamperedness'
p5880
aS'advantageous'
p5881
aS'exhilaratingly'
p5882
aS'eminent'
p5883
aS';;;;;;;;;;;;;;;;;;;;;;;;;;;;;;;;;;;;;;;;;;;;;;;;;;;;;;;;;;;;;;;;;;;;;;;;;;;;'
p5884
aS'resourceful'
p5885
aS'judicious'
p5886
aS'everlasting'
p5887
aS'plush'
p5888
aS'outperforming'
p5889
aS'empower'
p5890
aS'replaceable'
p5891
aS'smartest'
p5892
aS'selective'
p5893
aS'eventful'
p5894
aS'outdone'
p5895
aS'thrift'
p5896
aS'graciousness'
p5897
aS'luxuriate'
p5898
aS'exceptionally'
p5899
aS'dashing'
p5900
aS'gleeful'
p5901
aS'sweetness'
p5902
aS'excellently'
p5903
aS'readily'
p5904
aS'easy-to-use'
p5905
aS'enliven'
p5906
aS'revelation'
p5907
aS'warmhearted'
p5908
aS'gorgeous'
p5909
aS'jubilant'
p5910
aS'affluence'
p5911
aS'handsomely'
p5912
aS'brisk'
p5913
aS'instrumental'
p5914
aS'glad'
p5915
aS'pleasing'
p5916
aS'spontaneous'
p5917
aS'beautiful'
p5918
aS'tenacious'
p5919
aS'prompt'
p5920
aS'rejuvenate'
p5921
aS'rejuvenated'
p5922
aS'expeditiously'
p5923
aS'unbiased'
p5924
aS'sharp'
p5925
aS'snappy'
p5926
aS'dazzle'
p5927
aS'comfort'
p5928
aS'low-risk'
p5929
aS'rapport'
p5930
aS'glowing'
p5931
aS'cajole'
p5932
aS'vigilance'
p5933
aS'credible'
p5934
aS';    http://www.cs.uic.edu/~liub/FBS/sentiment-analysis.html'
p5935
aS'panoramic'
p5936
aS'fast-growing'
p5937
aS'spectacularly'
p5938
aS'thrills'
p5939
aS'bloom'
p5940
aS'flutter'
p5941
aS'benifits'
p5942
aS'meticulous'
p5943
aS'pleasure'
p5944
aS'truthfulness'
p5945
aS'heartfelt'
p5946
aS'peppy'
p5947
aS'superiority'
p5948
aS'staunch'
p5949
aS'smiling'
p5950
aS'zippy'
p5951
aS'thrilling'
p5952
aS'jollify'
p5953
aS'tantalizingly'
p5954
aS'fruitful'
p5955
aS'harmless'
p5956
aS'astonish'
p5957
aS'heros'
p5958
aS'nifty'
p5959
aS'ebulliently'
p5960
aS'justly'
p5961
aS'finer'
p5962
aS'good'
p5963
aS'motivated'
p5964
aS'generously'
p5965
aS'reassure'
p5966
aS'permissible'
p5967
aS'sweeping'
p5968
aS'adventurous'
p5969
aS'respectful'
p5970
aS'refresh'
p5971
aS'capability'
p5972
aS'exquisite'
p5973
aS'delightfulness'
p5974
aS'pamper'
p5975
aS'noble'
p5976
aS'resolute'
p5977
aS'beneficent'
p5978
aS'engaging'
p5979
aS'noiseless'
p5980
aS'dominates'
p5981
aS'trusty'
p5982
aS'ftw'
p5983
aS'foolproof'
p5984
aS'glitter'
p5985
aS'impeccably'
p5986
aS'jolly'
p5987
aS'applaud'
p5988
aS'dominated'
p5989
aS'paradise'
p5990
aS'fortitude'
p5991
aS'darling'
p5992
aS'salute'
p5993
aS'expansive'
p5994
aS'favored'
p5995
aS'cashbacks'
p5996
aS'pleasant'
p5997
aS'extraordinary'
p5998
aS'qualify'
p5999
aS'brightest'
p6000
aS'entrancing'
p6001
aS'heroic'
p6002
aS'revolutionary'
p6003
aS'benefits'
p6004
aS'exaltedly'
p6005
aS'sensations'
p6006
aS'indebted'
p6007
aS'dumbfounded'
p6008
aS'fancy'
p6009
aS'revive'
p6010
aS'well-known'
p6011
aS'humourous'
p6012
aS'effortless'
p6013
aS'marvelousness'
p6014
aS'peaceable'
p6015
aS'leverage'
p6016
aS'indulgent'
p6017
aS'blossom'
p6018
aS'leading'
p6019
aS'smoothes'
p6020
aS'smoother'
p6021
aS'comfy'
p6022
aS'hallowed'
p6023
aS'obtainable'
p6024
aS'wonderful'
p6025
aS'saint'
p6026
aS'aver'
p6027
aS'fervidly'
p6028
aS'record-setting'
p6029
aS'gleefully'
p6030
aS'excels'
p6031
aS'adulate'
p6032
aS'favorable'
p6033
aS'prodigious'
p6034
aS'grace'
p6035
aS'kindly'
p6036
aS'revolutionizes'
p6037
aS'spirited'
p6038
aS'purposeful'
p6039
aS'restful'
p6040
aS'low-price'
p6041
aS'cleaner'
p6042
aS'outstanding'
p6043
aS'well'
p6044
aS'swanky'
p6045
aS'affirmative'
p6046
aS'sturdier'
p6047
aS'ecstatically'
p6048
aS'warmly'
p6049
aS'blissful'
p6050
aS'thrillingly'
p6051
aS'serene'
p6052
aS'easygoing'
p6053
aS'adulatory'
p6054
aS'state-of-the-art'
p6055
aS'charm'
p6056
aS'significant'
p6057
aS'easing'
p6058
aS'prestige'
p6059
aS'achievement'
p6060
aS'goodwill'
p6061
aS'clear'
p6062
aS'charitable'
p6063
aS'amazed'
p6064
aS'clean'
p6065
aS'liberate'
p6066
aS'perseverance'
p6067
aS'ennoble'
p6068
aS'gold'
p6069
aS'fond'
p6070
aS'meticulously'
p6071
aS'top-notch'
p6072
aS'impressively'
p6073
aS'defender'
p6074
aS'fine'
p6075
aS'versatility'
p6076
aS'freedoms'
p6077
aS'beauteous'
p6078
aS'prowess'
p6079
aS'gains'
p6080
aS'mercifully'
p6081
aS'cheaper'
p6082
aS'famous'
p6083
aS'remedy'
p6084
aS'courage'
p6085
aS'fastest'
p6086
aS'virtuously'
p6087
aS'charmingly'
p6088
aS'rewardingly'
p6089
aS'progressive'
p6090
aS'terrifically'
p6091
aS'recommendations'
p6092
aS'sustainable'
p6093
aS'; Opinion Lexicon: Positive'
p6094
aS'unfettered'
p6095
aS'courteous'
p6096
aS'eyecatching'
p6097
aS'loveliness'
p6098
aS'intelligence'
p6099
aS'venerate'
p6100
aS'cleverly'
p6101
aS'gaily'
p6102
aS'glistening'
p6103
aS'distinctive'
p6104
aS'wow'
p6105
aS'worth-while'
p6106
aS'insightfully'
p6107
aS'beautifullly'
p6108
aS'fans'
p6109
aS'won'
p6110
aS'happiness'
p6111
aS'compliment'
p6112
aS'available'
p6113
aS'complementary'
p6114
aS'masterful'
p6115
aS'trustingly'
p6116
aS'succeed'
p6117
aS'lyrical'
p6118
aS'useable'
p6119
aS'improved'
p6120
aS'adorer'
p6121
aS'influential'
p6122
aS'adored'
p6123
aS'improves'
p6124
aS'approve'
p6125
aS'blissfully'
p6126
aS'upgraded'
p6127
aS'liked'
p6128
aS'majesty'
p6129
aS'ambitiously'
p6130
aS'sweet'
p6131
aS'likes'
p6132
aS'openness'
p6133
aS'improvement'
p6134
aS'civilize'
p6135
aS'patiently'
p6136
aS'bolster'
p6137
aS'rock-star'
p6138
aS'mind-blowing'
p6139
aS'faithfully'
p6140
aS'sociable'
p6141
aS'whoa'
p6142
aS'rosy'
p6143
aS'affectionate'
p6144
aS'sweetheart'
p6145
aS'decisiveness'
p6146
aS'champion'
p6147
aS'enchantingly'
p6148
aS'well-made'
p6149
aS'adaptable'
p6150
aS'goodly'
p6151
aS'well-mannered'
p6152
aS'intriguing'
p6153
aS'spellbindingly'
p6154
aS'enchanted'
p6155
aS'solid'
p6156
aS'reliable'
p6157
aS'civility'
p6158
aS'admire'
p6159
aS'healthy'
p6160
aS'smart'
p6161
aS'reliably'
p6162
aS'fun'
p6163
aS'credence'
p6164
aS'heroically'
p6165
aS'astound'
p6166
aS'ecstasy'
p6167
aS'headway'
p6168
aS'beautifully'
p6169
aS'ready'
p6170
aS'stimulates'
p6171
aS'law-abiding'
p6172
aS'reachable'
p6173
aS'grand'
p6174
aS'punctual'
p6175
aS'trivially'
p6176
aS'bonus'
p6177
aS'comprehensive'
p6178
aS'painless'
p6179
aS'appreciable'
p6180
aS'decency'
p6181
aS'robust'
p6182
aS'celebratory'
p6183
aS'energy-efficient'
p6184
aS'cheer'
p6185
aS'inspirational'
p6186
aS'clears'
p6187
aS'romanticize'
p6188
aS'alluring'
p6189
aS'glitz'
p6190
aS'altruistic'
p6191
aS'competitive'
p6192
aS'profoundly'
p6193
aS'openly'
p6194
aS'elegance'
p6195
aS'vigilant'
p6196
aS'useful'
p6197
aS'gems'
p6198
aS'excites'
p6199
aS'resourcefulness'
p6200
aS'danke'
p6201
aS'eager'
p6202
aS'exhilarate'
p6203
aS'bravery'
p6204
aS'harmonize'
p6205
aS'excited'
p6206
aS'luxury'
p6207
aS'fabulously'
p6208
aS'audibly'
p6209
aS'advocate'
p6210
aS'unlimited'
p6211
aS'self-sufficiency'
p6212
aS'enthusiastically'
p6213
aS'redeem'
p6214
aS'logical'
p6215
aS'cuteness'
p6216
aS'stirringly'
p6217
aS'helpful'
p6218
aS'beutifully'
p6219
aS'sincerely'
p6220
aS'entice'
p6221
aS'neatest'
p6222
aS'popular'
p6223
aS'stylish'
p6224
aS'amicably'
p6225
aS'irresistibly'
p6226
aS'humorous'
p6227
aS'impassioned'
p6228
aS'magnificent'
p6229
aS'euphorically'
p6230
aS'strongest'
p6231
aS'mighty'
p6232
aS';    2. You will notice many misspelled words in the list. They are not'
p6233
aS'trendy'
p6234
aS'sprightly'
p6235
aS'fanfare'
p6236
aS'amicable'
p6237
aS'irresistible'
p6238
aS'beneficially'
p6239
aS'proficient'
p6240
aS'novelty'
p6241
aS'exceeding'
p6242
aS'providence'
p6243
aS'innovation'
p6244
aS'trouble-free'
p6245
aS'best-performing'
p6246
aS'twinkly'
p6247
aS'patient'
p6248
aS'benefactor'
p6249
aS'suavely'
p6250
aS'effusive'
p6251
aS'respite'
p6252
aS'; This file and the papers can all be downloaded from'
p6253
aS'togetherness'
p6254
aS'shine'
p6255
aS'faith'
p6256
aS'simplify'
p6257
aS'conciliatory'
p6258
aS'audible'
p6259
aS'complimentary'
p6260
aS'shiny'
p6261
aS'pluses'
p6262
aS'youthful'
p6263
aS'miracles'
p6264
aS'razor-sharp'
p6265
aS'mesmerizingly'
p6266
aS'integral'
p6267
aS'appropriate'
p6268
aS'conscientious'
p6269
aS'calming'
p6270
aS'impressed'
p6271
aS'issue-free'
p6272
aS'glowingly'
p6273
aS'; Notes:'
p6274
aS'fast'
p6275
aS'impresses'
p6276
aS'statuesque'
p6277
aS'contentment'
p6278
aS'morality'
p6279
aS'radiant'
p6280
aS'graciously'
p6281
aS'healthful'
p6282
aS'time-honored'
p6283
aS'well-regarded'
p6284
aS'properly'
p6285
aS'reassurance'
p6286
aS'user-replaceable'
p6287
aS'ecstasies'
p6288
aS'patriot'
p6289
aS'intuitive'
p6290
aS'detachable'
p6291
aS'gratifying'
p6292
aS'maturity'
p6293
aS'mature'
p6294
aS'autonomous'
p6295
aS'awestruck'
p6296
aS'genial'
p6297
aS'reconcile'
p6298
aS'beckoning'
p6299
aS'eye-catching'
p6300
aS'cure'
p6301
aS'graceful'
p6302
aS'evocative'
p6303
aS'peach'
p6304
aS'peace'
p6305
aS'cohesive'
p6306
aS'afford'
p6307
aS'consummate'
p6308
aS'irreplaceable'
p6309
aS'nice'
p6310
aS'excelent'
p6311
aS'energetic'
p6312
aS'smitten'
p6313
aS'lucid'
p6314
aS'backbone'
p6315
aS'long-lasting'
p6316
aS'luxurious'
p6317
aS'helping'
p6318
aS'fervently'
p6319
aS'phenomenally'
p6320
aS'rightful'
p6321
aS'happier'
p6322
aS'reasoned'
p6323
aS'wellbeing'
p6324
aS'admiring'
p6325
aS'fresh'
p6326
aS'enrichment'
p6327
aS'evenly'
p6328
aS'faultless'
p6329
aS'enjoyably'
p6330
aS';       mean that the sentence expresses a positive or negative opinion.'
p6331
aS'cheerful'
p6332
aS'renown'
p6333
aS'fascinatingly'
p6334
aS'gladly'
p6335
aS'intricate'
p6336
aS'compact'
p6337
aS'stunned'
p6338
aS'uphold'
p6339
aS'suave'
p6340
aS'stable'
p6341
aS'enlightenment'
p6342
aS'friendly'
p6343
aS'virtuous'
p6344
aS'steadiest'
p6345
aS'prudence'
p6346
aS'felicity'
p6347
aS'promise'
p6348
aS'timely'
p6349
aS'magic'
p6350
aS'mesmerizing'
p6351
aS'fast-paced'
p6352
aS'compassionate'
p6353
aS'nourishing'
p6354
aS'jaw-dropping'
p6355
aS'idealize'
p6356
aS'outdo'
p6357
aS'friendliness'
p6358
aS';       frequently in social media content.'
p6359
aS'sensation'
p6360
aS'exuberant'
p6361
aS'ardent'
p6362
aS'lower-priced'
p6363
aS'reconciliation'
p6364
aS'outsmart'
p6365
aS'consistently'
p6366
aS'relent'
p6367
ag3720
aS'advantageously'
p6368
aS'led'
p6369
aS'cozy'
p6370
aS'nimble'
p6371
aS'sexy'
p6372
aS'enterprising'
p6373
aS'commendably'
p6374
aS'great'
p6375
aS'talent'
p6376
aS'survivor'
p6377
aS'benevolence'
p6378
aS'unconditional'
p6379
aS'defeat'
p6380
aS'commendable'
p6381
aS'honor'
p6382
aS'chaste'
p6383
aS'cost-saving'
p6384
aS'win'
p6385
aS'worthy'
p6386
aS'thumb-up'
p6387
aS'hardy'
p6388
aS'beckon'
p6389
aS'desiring'
p6390
aS'subsidizes'
p6391
aS'confidence'
p6392
aS'agreeably'
p6393
aS'readable'
p6394
aS'seamless'
p6395
aS'pain-free'
p6396
aS'assuring'
p6397
aS'cashback'
p6398
aS'subsidized'
p6399
aS'agreeable'
p6400
aS'clever'
p6401
aS'pretty'
p6402
aS'impress'
p6403
aS'charming'
p6404
aS'steadfastly'
p6405
aS'magnanimous'
p6406
aS'felicitate'
p6407
aS'enviously'
p6408
aS'joyfully'
p6409
aS'beckoned'
p6410
aS'ebullience'
p6411
aS'exhilaration'
p6412
aS'unreal'
p6413
aS'praise'
p6414
aS'smartly'
p6415
aS'indulgence'
p6416
aS'earnestness'
p6417
aS'rapt'
p6418
aS'effectively'
p6419
aS'inviolate'
p6420
aS'fulfillment'
p6421
aS'trumpet'
p6422
aS'gainfully'
p6423
aS'magnificently'
p6424
aS'invincibility'
p6425
aS'daring'
p6426
aS'picturesque'
p6427
aS'buoyant'
p6428
aS'fortunate'
p6429
aS'unquestionably'
p6430
aS'danken'
p6431
aS'revitalize'
p6432
aS'intelligent'
p6433
aS'luster'
p6434
aS'fine-looking'
p6435
aS'restructured'
p6436
aS'luxuriously'
p6437
aS'winners'
p6438
aS'preferring'
p6439
aS'solidarity'
p6440
aS'efficiently'
p6441
aS'advocated'
p6442
aS'regally'
p6443
aS'advocates'
p6444
aS'classy'
p6445
aS'well-managed'
p6446
aS';          Handbook of Natural Language Processing, Second Edition,'
p6447
aS'flattering'
p6448
aS'polished'
p6449
aS'unquestionable'
p6450
aS'hotcakes'
p6451
aS'perfect'
p6452
aS'superior'
p6453
aS'industrious'
p6454
aS'glee'
p6455
aS'winning'
p6456
aS'willing'
p6457
aS'spellbound'
p6458
aS'revives'
p6459
aS'wonderously'
p6460
aS'outshone'
p6461
aS'prosper'
p6462
aS'rectification'
p6463
aS'multi-purpose'
p6464
aS'wows'
p6465
aS'self-satisfaction'
p6466
aS'legendary'
p6467
aS'optimal'
p6468
aS'nurturing'
p6469
aS'kindness'
p6470
aS'handy'
p6471
aS'masters'
p6472
aS'hallmarks'
p6473
aS'thrill'
p6474
aS'profound'
p6475
aS'mastery'
p6476
aS'scenic'
p6477
aS'enviable'
p6478
aS'eased'
p6479
aS'sufficiently'
p6480
aS'delightful'
p6481
aS'enviably'
p6482
aS'satisified'
p6483
aS'monumentally'
p6484
aS'eases'
p6485
aS'illuminate'
p6486
aS'illuminati'
p6487
aS'upliftingly'
p6488
aS'exceeded'
p6489
aS'gallant'
p6490
aS';       Discovery and Data Mining (KDD-2004), Aug 22-25, 2004, Seattle,'
p6491
aS'sufficed'
p6492
aS'superbly'
p6493
aS'thrifty'
p6494
aS'hilarious'
p6495
aS'honorable'
p6496
aS'adaptive'
p6497
aS'fondly'
p6498
aS'integrated'
p6499
aS'achievements'
p6500
aS'solicitously'
p6501
aS';       2005, Chiba, Japan.'
p6502
aS'promptly'
p6503
aS'tempt'
p6504
aS'simplifying'
p6505
aS'overtake'
p6506
aS'mesmerized'
p6507
aS'feasible'
p6508
aS'mesmerizes'
p6509
aS'keen'
p6510
aS'feasibly'
p6511
aS'serenity'
p6512
aS'chivalry'
p6513
aS'stainless'
p6514
aS'facilitate'
p6515
aS'astutely'
p6516
aS'softer'
p6517
aS'whooa'
p6518
aS'handier'
p6519
aS'finest'
p6520
aS'ethical'
p6521
aS'powerful'
p6522
aS'felicitous'
p6523
aS'rectifying'
p6524
aS'improvements'
p6525
aS'eminence'
p6526
aS'precisely'
p6527
aS'salutary'
p6528
aS'supurbly'
p6529
aS'glisten'
p6530
aS'durable'
p6531
aS'unequivocal'
p6532
aS'gainful'
p6533
aS'exhilarating'
p6534
aS'perfectly'
p6535
aS'interests'
p6536
aS'agility'
p6537
aS'inestimably'
p6538
aS'vouch'
p6539
aS'luckiness'
p6540
aS'inestimable'
p6541
aS'blameless'
p6542
aS'elite'
p6543
aS'exultingly'
p6544
aS'loved'
p6545
aS'glamorous'
p6546
aS'jaw-droping'
p6547
aS'aspiration'
p6548
aS'richer'
p6549
aS'extraordinarily'
p6550
aS'frugal'
p6551
aS'appealing'
p6552
aS'halcyon'
p6553
aS'loves'
p6554
aS'lover'
p6555
aS'distinguished'
p6556
aS'ingenious'
p6557
aS'imaginative'
p6558
aS'chivalrous'
p6559
aS'intriguingly'
p6560
aS'trusting'
p6561
aS'tidy'
p6562
aS'comfortable'
p6563
aS'gentle'
p6564
aS'comfortably'
p6565
aS'feature-rich'
p6566
aS'outstrip'
p6567
aS'blockbuster'
p6568
aS'assurances'
p6569
aS'clearly'
p6570
aS'saintly'
p6571
aS'skillful'
p6572
aS'awed'
p6573
aS'brilliances'
p6574
aS'fancinating'
p6575
aS'effusiveness'
p6576
aS'triumphal'
p6577
aS'toughest'
p6578
aS'passionately'
p6579
aS'resplendent'
p6580
aS'better-known'
p6581
aS'awe'
p6582
aS'fervent'
p6583
aS'fair'
p6584
aS'courageousness'
p6585
aS'refreshing'
p6586
aS'heartening'
p6587
aS'enthusiastic'
p6588
aS'stronger'
p6589
aS'astonishing'
p6590
aS'magnanimously'
p6591
aS';       International World Wide Web conference (WWW-2005), May 10-14,'
p6592
aS'pleases'
p6593
aS'supported'
p6594
aS'well-being'
p6595
aS'feat'
p6596
aS'pleased'
p6597
aS'envy'
p6598
aS'illumine'
p6599
aS'conciliate'
p6600
aS'winner'
p6601
aS'hopeful'
p6602
aS'brighten'
p6603
aS'brighter'
p6604
aS'solicitous'
p6605
aS'handsome'
p6606
aS'gratify'
p6607
aS'righteousness'
p6608
aS'exceptional'
p6609
aS'exaltation'
p6610
aS'irreproachable'
p6611
aS'lucky'
p6612
aS'perfection'
p6613
aS'exultant'
p6614
aS'marvels'
p6615
aS'stability'
p6616
aS';    1. The appearance of an opinion word in a sentence does not necessarily'
p6617
aS'affluent'
p6618
aS'gush'
p6619
aS'amiabily'
p6620
aS'futuristic'
p6621
aS'enhances'
p6622
aS'inventive'
p6623
aS'subsidizing'
p6624
aS'fantastically'
p6625
aS';          (editors: N. Indurkhya and F. J. Damerau), 2010.'
p6626
aS'enhanced'
p6627
aS'humane'
p6628
aS'righteously'
p6629
aS'luckiest'
p6630
aS'destiny'
p6631
aS'reform'
p6632
aS'invulnerable'
p6633
aS'superb'
p6634
aS'genius'
p6635
aS'beautify'
p6636
aS'correctly'
p6637
aS'exellent'
p6638
aS'progress'
p6639
aS'complement'
p6640
aS'believeable'
p6641
aS'smilingly'
p6642
aS'joy'
p6643
aS'stellarly'
p6644
aS'merry'
p6645
aS'proficiently'
p6646
aS'approval'
p6647
aS'precious'
p6648
aS'swift'
p6649
aS'thank'
p6650
aS'empathy'
p6651
aS'diligent'
p6652
aS'valiantly'
p6653
aS'galore'
p6654
aS'assure'
p6655
aS'interesting'
p6656
aS'exalting'
p6657
aS'glorious'
p6658
aS'profusion'
p6659
aS'gooood'
p6660
aS'sumptuousness'
p6661
aS'commend'
p6662
aS'respect'
p6663
aS'cohere'
p6664
aS'jubilate'
p6665
aS'flourishing'
p6666
aS'yay'
p6667
aS'propitiously'
p6668
aS'electrify'
p6669
aS'decent'
p6670
aS'dazzling'
p6671
aS'immense'
p6672
aS'seasoned'
p6673
aS'upbeat'
p6674
aS'hottest'
p6675
aS'geekier'
p6676
aS'spacious'
p6677
aS'divinely'
p6678
aS'sufficient'
p6679
aS'meritorious'
p6680
aS'overture'
p6681
aS'acclamation'
p6682
aS'tenderly'
p6683
aS'enviousness'
p6684
aS'promoter'
p6685
aS'stunning'
p6686
aS'dead-cheap'
p6687
aS'supurb'
p6688
aS'amenity'
p6689
aS'likable'
p6690
aS'lush'
p6691
aS'encouragement'
p6692
aS'helped'
p6693
aS'hearten'
p6694
aS'optimistic'
p6695
aS'well-behaved'
p6696
aS'sensitive'
p6697
aS'eulogize'
p6698
aS'richness'
p6699
aS'temptingly'
p6700
aS'unity'
p6701
aS'exuberance'
p6702
aS'merciful'
p6703
aS'soundness'
p6704
aS'joyously'
p6705
aS'privileged'
p6706
aS'grandeur'
p6707
aS'covenant'
p6708
aS'effusively'
p6709
aS'complemented'
p6710
aS'rightfully'
p6711
aS'prodigiously'
p6712
aS'abounds'
p6713
aS'amicability'
p6714
aS'impeccable'
p6715
aS'light-hearted'
p6716
aS'endearing'
p6717
aS'pleasantly'
p6718
aS'fascinate'
p6719
aS'pampered'
p6720
aS'variety'
p6721
aS';       See the paper below:'
p6722
aS'exceedingly'
p6723
aS'risk-free'
p6724
aS'user-friendly'
p6725
aS'restructure'
p6726
aS'attractively'
p6727
aS'accurate'
p6728
aS'surpass'
p6729
aS'tough'
p6730
aS'skill'
p6731
aS'gentlest'
p6732
aS'roomy'
p6733
aS'reaffirmation'
p6734
aS'swankiest'
p6735
aS'generous'
p6736
aS'rapid'
p6737
aS'avidly'
p6738
aS'surreal'
p6739
aS'transparent'
p6740
aS'attractive'
p6741
aS'earnestly'
p6742
aS'pampers'
p6743
aS'reformed'
p6744
aS'captivating'
p6745
aS'ample'
p6746
aS'famously'
p6747
aS'idyllic'
p6748
aS'miraculousness'
p6749
aS'amply'
p6750
aS'prominent'
p6751
aS'accomodative'
p6752
aS'gallantly'
p6753
aS'crisp'
p6754
aS'like'
p6755
aS'success'
p6756
aS'hands-down'
p6757
aS'vibrant'
p6758
aS'works'
p6759
aS'soft'
p6760
aS'lucidly'
p6761
aS'wonders'
p6762
aS'accessible'
p6763
aS'exceed'
p6764
aS'retractable'
p6765
aS'smoothly'
p6766
aS'hail'
p6767
aS'warmer'
p6768
aS'recommendation'
p6769
aS'proper'
p6770
aS'liking'
p6771
aS'supportive'
p6772
aS'supple'
p6773
aS'lead'
p6774
aS'breakthroughs'
p6775
aS'lean'
p6776
aS'appreciative'
p6777
aS'rewarding'
p6778
aS'passion'
p6779
aS'economical'
p6780
aS'humorously'
p6781
aS'stellar'
p6782
aS'poignant'
p6783
aS'pepped'
p6784
aS'hospitable'
p6785
aS'problem-free'
p6786
aS'well-informed'
p6787
aS'simpler'
p6788
aS'gained'
p6789
aS'accessable'
p6790
aS'freedom'
p6791
aS'idolize'
p6792
aS'compatible'
p6793
aS'courtly'
p6794
aS'hallmark'
p6795
aS'eloquently'
p6796
aS'faithfulness'
p6797
aS'rectify'
p6798
aS'hotcake'
p6799
aS'commitment'
p6800
aS'articulate'
p6801
aS'champ'
p6802
aS'lawful'
p6803
aS'brilliantly'
p6804
aS'doubtless'
p6805
aS'rejoice'
p6806
aS'fastest-growing'
p6807
aS'support'
p6808
aS'awarded'
p6809
aS'upliftment'
p6810
aS'enticed'
p6811
aS'stimulative'
p6812
aS'glimmer'
p6813
aS'nourish'
p6814
aS'elate'
p6815
aS'amity'
p6816
aS'jubilation'
p6817
aS'gain'
p6818
aS'versatile'
p6819
aS'exaltingly'
p6820
aS'wise'
p6821
aS'glory'
p6822
aS'instructive'
p6823
aS'embolden'
p6824
aS'smooth'
p6825
aS'triumphant'
p6826
aS'excitement'
p6827
aS'accommodative'
p6828
aS'examplar'
p6829
aS'diligently'
p6830
aS'supreme'
p6831
aS'eagerness'
p6832
aS'goodness'
p6833
aS'recomend'
p6834
aS'accolade'
p6835
aS'renowned'
p6836
aS'incredible'
p6837
aS'spellbinding'
p6838
aS'boom'
p6839
aS'incredibly'
p6840
aS'ecstatic'
p6841
aS'excitingly'
p6842
aS'nourishment'
p6843
aS'astounding'
p6844
aS'gloriously'
p6845
aS'godsend'
p6846
aS'inspiration'
p6847
aS'rich'
p6848
atp6849
Rp6850
s.